

Microchip MPLAB XC8 Assembler V2.40 build 20220703182018 
                                                                                               Wed Jun 14 18:24:16 2023

Microchip MPLAB XC8 C Compiler v2.40 (Free license) build 20220703182018 Og1 
     1                           	processor	18F4620
     2                           	fnconf	rparam,??,?,0
     3                           	pagewidth 120
     4                           	opt	flic
     5                           	psect	idataCOMRAM,global,class=CODE,delta=1,noexec
     6                           	psect	smallconst,global,reloc=2,class=SMALLCONST,delta=1,noexec
     7                           	psect	cinit,global,reloc=2,class=CODE,delta=1
     8                           	psect	bssCOMRAM,global,class=COMRAM,space=1,delta=1,lowdata,noexec
     9                           	psect	dataCOMRAM,global,class=COMRAM,space=1,delta=1,lowdata,noexec
    10                           	psect	cstackBANK0,global,class=BANK0,space=1,delta=1,lowdata,noexec
    11                           	psect	cstackCOMRAM,global,class=COMRAM,space=1,delta=1,lowdata,noexec
    12                           	psect	text0,global,reloc=2,class=CODE,delta=1
    13                           	psect	text1,global,reloc=2,class=CODE,delta=1
    14                           	psect	text2,global,reloc=2,class=CODE,delta=1
    15                           	psect	text3,global,reloc=2,class=CODE,delta=1
    16                           	psect	text4,global,reloc=2,class=CODE,delta=1
    17                           	psect	text5,global,reloc=2,class=CODE,delta=1
    18                           	psect	text6,global,reloc=2,class=CODE,delta=1
    19                           	psect	text7,global,reloc=2,class=CODE,delta=1
    20                           	psect	text8,global,reloc=2,class=CODE,delta=1
    21                           	psect	text9,global,reloc=2,class=CODE,delta=1
    22                           	psect	text10,global,reloc=2,class=CODE,delta=1
    23                           	psect	text11,global,reloc=2,class=CODE,delta=1
    24                           	psect	text12,global,reloc=2,class=CODE,delta=1
    25                           	psect	text13,global,reloc=2,class=CODE,delta=1
    26                           	psect	text14,global,reloc=2,class=CODE,delta=1
    27                           	psect	text15,global,reloc=2,class=CODE,delta=1
    28                           	psect	text16,global,reloc=2,class=CODE,delta=1
    29                           	psect	text17,global,reloc=2,class=CODE,delta=1
    30                           	psect	text18,global,reloc=2,class=CODE,delta=1
    31                           	psect	text19,global,reloc=2,class=CODE,delta=1
    32                           	psect	text20,global,reloc=2,class=CODE,delta=1
    33                           	psect	text21,global,reloc=2,class=CODE,delta=1
    34                           	psect	text22,global,reloc=2,class=CODE,delta=1
    35                           	psect	text23,global,reloc=2,class=CODE,delta=1
    36                           	psect	text24,global,reloc=2,class=CODE,delta=1
    37                           	psect	text25,global,reloc=2,class=CODE,delta=1
    38                           	psect	text26,global,reloc=2,class=CODE,delta=1,inline
    39                           	psect	text27,global,reloc=2,class=CODE,delta=1,inline
    40                           	psect	text28,global,reloc=2,class=CODE,delta=1,inline
    41                           	psect	text29,global,reloc=2,class=CODE,delta=1
    42                           	psect	intcode,global,reloc=2,class=CODE,delta=1
    43                           	psect	intcode_body,global,reloc=2,class=CODE,delta=1
    44                           	psect	text31,global,reloc=2,class=CODE,delta=1
    45                           	psect	text32,global,reloc=2,class=CODE,delta=1
    46                           	psect	text33,global,reloc=2,class=CODE,delta=1
    47                           	psect	intsave_regs,global,class=BIGRAM,space=1,delta=1,noexec
    48                           	psect	text34,global,reloc=2,class=CODE,delta=1
    49                           	psect	rparam,global,class=COMRAM,space=1,delta=1,noexec
    50                           	psect	temp,global,ovrld,common,class=COMRAM,space=1,delta=1
    51                           	psect	idloc,global,abs,ovrld,class=IDLOC,space=5,delta=1,noexec
    52                           	psect	config,global,abs,ovrld,class=CONFIG,space=4,delta=1,noexec
    53   000000                     
    54                           ; Version 2.40
    55                           ; Generated 17/11/2021 GMT
    56                           ; 
    57                           ; Copyright © 2021, Microchip Technology Inc. and its subsidiaries ("Microchip")
    58                           ; All rights reserved.
    59                           ; 
    60                           ; This software is developed by Microchip Technology Inc. and its subsidiaries ("Microch
      +                          ip").
    61                           ; 
    62                           ; Redistribution and use in source and binary forms, with or without modification, are
    63                           ; permitted provided that the following conditions are met:
    64                           ; 
    65                           ;     1. Redistributions of source code must retain the above copyright notice, this lis
      +                          t of
    66                           ;        conditions and the following disclaimer.
    67                           ; 
    68                           ;     2. Redistributions in binary form must reproduce the above copyright notice, this 
      +                          list
    69                           ;        of conditions and the following disclaimer in the documentation and/or other
    70                           ;        materials provided with the distribution. Publication is not required when
    71                           ;        this file is used in an embedded application.
    72                           ; 
    73                           ;     3. Microchip's name may not be used to endorse or promote products derived from th
      +                          is
    74                           ;        software without specific prior written permission.
    75                           ; 
    76                           ; THIS SOFTWARE IS PROVIDED BY MICROCHIP "AS IS" AND ANY EXPRESS OR IMPLIED WARRANTIES,
    77                           ; INCLUDING, BUT NOT LIMITED TO, THE IMPLIED WARRANTIES OF MERCHANTABILITY AND FITNESS F
      +                          OR
    78                           ; PURPOSE ARE DISCLAIMED.  IN NO EVENT SHALL MICROCHIP BE LIABLE FOR ANY DIRECT, INDIREC
      +                          T,
    79                           ; INCIDENTAL, SPECIAL, EXEMPLARY, OR CONSEQUENTIAL DAMAGES (INCLUDING BUT NOT LIMITED TO
    80                           ; PROCUREMENT OF SUBSTITUTE GOODS OR SERVICES; LOSS OF USE, DATA OR PROFITS; OR BUSINESS
    81                           ; INTERRUPTION) HOWSOEVER CAUSED AND ON ANY THEORY OF LIABILITY, WHETHER IN CONTRACT, ST
      +                          RICT
    82                           ; LIABILITY, OR TORT (INCLUDING NEGLIGENCE OR OTHERWISE) ARISING IN ANY WAY OUT OF THE U
      +                          SE OF
    83                           ; THIS SOFTWARE, EVEN IF ADVISED OF THE POSSIBILITY OF SUCH DAMAGE.
    84                           ; 
    85                           ; 
    86                           ; Code-generator required, PIC18F4620 Definitions
    87                           ; 
    88                           ; SFR Addresses
    89   000000                     
    90                           	psect	idataCOMRAM
    91   0023D4                     __pidataCOMRAM:
    92                           	callstack 0
    93                           
    94                           ;initializer for _port_registers
    95   0023D4  80                 	db	128
    96   0023D5  0F                 	db	15
    97   0023D6  81                 	db	129
    98   0023D7  0F                 	db	15
    99   0023D8  82                 	db	130
   100   0023D9  0F                 	db	15
   101   0023DA  83                 	db	131
   102   0023DB  0F                 	db	15
   103   0023DC  84                 	db	132
   104   0023DD  0F                 	db	15
   105                           
   106                           ;initializer for _lat_registers
   107   0023DE  89                 	db	137
   108   0023DF  0F                 	db	15
   109   0023E0  8A                 	db	138
   110   0023E1  0F                 	db	15
   111   0023E2  8B                 	db	139
   112   0023E3  0F                 	db	15
   113   0023E4  8C                 	db	140
   114   0023E5  0F                 	db	15
   115   0023E6  8D                 	db	141
   116   0023E7  0F                 	db	15
   117                           
   118                           ;initializer for _tris_registers
   119   0023E8  92                 	db	146
   120   0023E9  0F                 	db	15
   121   0023EA  93                 	db	147
   122   0023EB  0F                 	db	15
   123   0023EC  94                 	db	148
   124   0023ED  0F                 	db	15
   125   0023EE  95                 	db	149
   126   0023EF  0F                 	db	15
   127   0023F0  96                 	db	150
   128   0023F1  0F                 	db	15
   129                           
   130                           ;initializer for main@F3197
   131   0023F2  FF                 	db	255
   132   0023F3  FF                 	db	255
   133   0023F4  FF                 	db	255
   134   0023F5  FF                 	db	255
   135                           
   136                           ;initializer for main@F3195
   137   0023F6  FF                 	db	255
   138   0023F7  FF                 	db	255
   139   0023F8  FF                 	db	255
   140   0023F9  FF                 	db	255
   141                           
   142                           ;initializer for main@F3192
   143   0023FA  FF                 	db	255
   144   0023FB  FF                 	db	255
   145   0023FC  FF                 	db	255
   146   0023FD  FF                 	db	255
   147                           
   148                           ;initializer for _Keypad_Obj
   149   0023FE  00                 	db	0
   150   0023FF  08                 	db	8
   151   002400  10                 	db	16
   152   002401  18                 	db	24
   153   002402  60                 	db	96
   154   002403  68                 	db	104
   155   002404  70                 	db	112
   156   002405  78                 	db	120
   157                           
   158                           ;initializer for _TimerDelay
   159   002406  2E                 	db	low _Timer0Interrupt
   160   002407  26                 	db	high _Timer0Interrupt
   161   002408  00                 	db	0
   162   002409  FF9C               	dw	65436
   163   00240B  0A                 	db	10
   164                           
   165                           ;initializer for _Lcd_Obj
   166   00240C  02                 	db	2
   167   00240D  0A                 	db	10
   168   00240E  12                 	db	18
   169   00240F  1A                 	db	26
   170   002410  22                 	db	34
   171   002411  2A                 	db	42
   172                           
   173                           ;initializer for _DC_Obj
   174   002412  03                 	db	3
   175   002413  0B                 	db	11
   176                           
   177                           	psect	smallconst
   178   001000                     __psmallconst:
   179                           	callstack 0
   180   001000  00                 	db	0
   181   001001                     _btn_keypad_values:
   182                           	callstack 0
   183   001001  37                 	db	55
   184   001002  38                 	db	56
   185   001003  39                 	db	57
   186   001004  2F                 	db	47
   187   001005  34                 	db	52
   188   001006  35                 	db	53
   189   001007  36                 	db	54
   190   001008  2A                 	db	42
   191   001009  31                 	db	49
   192   00100A  32                 	db	50
   193   00100B  33                 	db	51
   194   00100C  2D                 	db	45
   195   00100D  23                 	db	35
   196   00100E  30                 	db	48
   197   00100F  3D                 	db	61
   198   001010  2B                 	db	43
   199   001011                     __end_of_btn_keypad_values:
   200                           	callstack 0
   201   000000                     _TMR1L	set	4046
   202   000000                     _TMR1H	set	4047
   203   000000                     _TMR0L	set	4054
   204   000000                     _TMR0H	set	4055
   205   000000                     _EECON2	set	4007
   206   000000                     _EECON1bits	set	4006
   207   000000                     _EEDATA	set	4008
   208   000000                     _EEADR	set	4009
   209   000000                     _EEADRH	set	4010
   210   000000                     _ADCON1bits	set	4033
   211   000000                     _PORTE	set	3972
   212   000000                     _PORTD	set	3971
   213   000000                     _PORTC	set	3970
   214   000000                     _PORTB	set	3969
   215   000000                     _PORTA	set	3968
   216   000000                     _LATA	set	3977
   217   000000                     _TRISA	set	3986
   218   000000                     _T1CONbits	set	4045
   219   000000                     _T0CONbits	set	4053
   220   000000                     _INTCONbits	set	4082
   221   000000                     _PIE1bits	set	3997
   222   000000                     _TRISE	set	3990
   223   000000                     _TRISD	set	3989
   224   000000                     _TRISC	set	3988
   225   000000                     _TRISB	set	3987
   226   000000                     _LATE	set	3981
   227   000000                     _LATD	set	3980
   228   000000                     _LATC	set	3979
   229   000000                     _LATB	set	3978
   230   000000                     _PIR1bits	set	3998
   231   001011                     STR_15:
   232   001011  57                 	db	87	;'W'
   233   001012  61                 	db	97	;'a'
   234   001013  69                 	db	105	;'i'
   235   001014  74                 	db	116	;'t'
   236   001015  20                 	db	32
   237   001016  75                 	db	117	;'u'
   238   001017  6E                 	db	110	;'n'
   239   001018  74                 	db	116	;'t'
   240   001019  69                 	db	105	;'i'
   241   00101A  6C                 	db	108	;'l'
   242   00101B  20                 	db	32
   243   00101C  54                 	db	84	;'T'
   244   00101D  68                 	db	104	;'h'
   245   00101E  65                 	db	101	;'e'
   246   00101F  20                 	db	32
   247   001020  44                 	db	68	;'D'
   248   001021  6F                 	db	111	;'o'
   249   001022  6F                 	db	111	;'o'
   250   001023  72                 	db	114	;'r'
   251   001024  00                 	db	0
   252   001025                     STR_1:
   253   001025  57                 	db	87	;'W'
   254   001026  65                 	db	101	;'e'
   255   001027  6C                 	db	108	;'l'
   256   001028  63                 	db	99	;'c'
   257   001029  6F                 	db	111	;'o'
   258   00102A  6D                 	db	109	;'m'
   259   00102B  65                 	db	101	;'e'
   260   00102C  20                 	db	32
   261   00102D  74                 	db	116	;'t'
   262   00102E  6F                 	db	111	;'o'
   263   00102F  20                 	db	32
   264   001030  53                 	db	83	;'S'
   265   001031  6D                 	db	109	;'m'
   266   001032  61                 	db	97	;'a'
   267   001033  72                 	db	114	;'r'
   268   001034  74                 	db	116	;'t'
   269   001035  00                 	db	0
   270   001036                     STR_10:
   271   001036  57                 	db	87	;'W'
   272   001037  61                 	db	97	;'a'
   273   001038  69                 	db	105	;'i'
   274   001039  74                 	db	116	;'t'
   275   00103A  20                 	db	32
   276   00103B  32                 	db	50	;'2'
   277   00103C  30                 	db	48	;'0'
   278   00103D  20                 	db	32
   279   00103E  53                 	db	83	;'S'
   280   00103F  65                 	db	101	;'e'
   281   001040  63                 	db	99	;'c'
   282   001041  6F                 	db	111	;'o'
   283   001042  6E                 	db	110	;'n'
   284   001043  64                 	db	100	;'d'
   285   001044  73                 	db	115	;'s'
   286   001045  00                 	db	0
   287   001046                     STR_16:
   288   001046  4F                 	db	79	;'O'
   289   001047  70                 	db	112	;'p'
   290   001048  65                 	db	101	;'e'
   291   001049  6E                 	db	110	;'n'
   292   00104A  20                 	db	32
   293   00104B  41                 	db	65	;'A'
   294   00104C  6E                 	db	110	;'n'
   295   00104D  64                 	db	100	;'d'
   296   00104E  20                 	db	32
   297   00104F  43                 	db	67	;'C'
   298   001050  6C                 	db	108	;'l'
   299   001051  6F                 	db	111	;'o'
   300   001052  73                 	db	115	;'s'
   301   001053  65                 	db	101	;'e'
   302   001054  00                 	db	0
   303   001055                     STR_8:
   304   001055  53                 	db	83	;'S'
   305   001056  65                 	db	101	;'e'
   306   001057  74                 	db	116	;'t'
   307   001058  20                 	db	32
   308   001059  54                 	db	84	;'T'
   309   00105A  68                 	db	104	;'h'
   310   00105B  65                 	db	101	;'e'
   311   00105C  20                 	db	32
   312   00105D  50                 	db	80	;'P'
   313   00105E  61                 	db	97	;'a'
   314   00105F  73                 	db	115	;'s'
   315   001060  73                 	db	115	;'s'
   316   001061  3A                 	db	58	;':'
   317   001062  00                 	db	0
   318   001063                     STR_9:
   319   001063  4C                 	db	76	;'L'
   320   001064  6F                 	db	111	;'o'
   321   001065  67                 	db	103	;'g'
   322   001066  69                 	db	105	;'i'
   323   001067  6E                 	db	110	;'n'
   324   001068  20                 	db	32
   325   001069  42                 	db	66	;'B'
   326   00106A  6C                 	db	108	;'l'
   327   00106B  6F                 	db	111	;'o'
   328   00106C  63                 	db	99	;'c'
   329   00106D  6B                 	db	107	;'k'
   330   00106E  65                 	db	101	;'e'
   331   00106F  64                 	db	100	;'d'
   332   001070  00                 	db	0
   333   001071                     STR_3:
   334   001071  4C                 	db	76	;'L'
   335   001072  6F                 	db	111	;'o'
   336   001073  67                 	db	103	;'g'
   337   001074  69                 	db	105	;'i'
   338   001075  6E                 	db	110	;'n'
   339   001076  20                 	db	32
   340   001077  46                 	db	70	;'F'
   341   001078  6F                 	db	111	;'o'
   342   001079  72                 	db	114	;'r'
   343   00107A  20                 	db	32
   344   00107B  54                 	db	84	;'T'
   345   00107C  68                 	db	104	;'h'
   346   00107D  65                 	db	101	;'e'
   347   00107E  00                 	db	0
   348   00107F                     STR_14:
   349   00107F  43                 	db	67	;'C'
   350   001080  6F                 	db	111	;'o'
   351   001081  72                 	db	114	;'r'
   352   001082  72                 	db	114	;'r'
   353   001083  65                 	db	101	;'e'
   354   001084  63                 	db	99	;'c'
   355   001085  74                 	db	116	;'t'
   356   001086  20                 	db	32
   357   001087  50                 	db	80	;'P'
   358   001088  61                 	db	97	;'a'
   359   001089  73                 	db	115	;'s'
   360   00108A  73                 	db	115	;'s'
   361   00108B  00                 	db	0
   362   00108C                     STR_2:
   363   00108C  44                 	db	68	;'D'
   364   00108D  6F                 	db	111	;'o'
   365   00108E  6F                 	db	111	;'o'
   366   00108F  72                 	db	114	;'r'
   367   001090  20                 	db	32
   368   001091  53                 	db	83	;'S'
   369   001092  79                 	db	121	;'y'
   370   001093  73                 	db	115	;'s'
   371   001094  74                 	db	116	;'t'
   372   001095  65                 	db	101	;'e'
   373   001096  6D                 	db	109	;'m'
   374   001097  00                 	db	0
   375   001098                     STR_12:
   376   001098  57                 	db	87	;'W'
   377   001099  72                 	db	114	;'r'
   378   00109A  6F                 	db	111	;'o'
   379   00109B  6E                 	db	110	;'n'
   380   00109C  67                 	db	103	;'g'
   381   00109D  20                 	db	32
   382   00109E  49                 	db	73	;'I'
   383   00109F  6E                 	db	110	;'n'
   384   0010A0  70                 	db	112	;'p'
   385   0010A1  75                 	db	117	;'u'
   386   0010A2  74                 	db	116	;'t'
   387   0010A3  00                 	db	0
   388   0010A4                     STR_6:
   389   0010A4  54                 	db	84	;'T'
   390   0010A5  68                 	db	104	;'h'
   391   0010A6  65                 	db	101	;'e'
   392   0010A7  20                 	db	32
   393   0010A8  50                 	db	80	;'P'
   394   0010A9  61                 	db	97	;'a'
   395   0010AA  73                 	db	115	;'s'
   396   0010AB  73                 	db	115	;'s'
   397   0010AC  20                 	db	32
   398   0010AD  3A                 	db	58	;':'
   399   0010AE  00                 	db	0
   400   0010AF                     STR_7:
   401   0010AF  50                 	db	80	;'P'
   402   0010B0  61                 	db	97	;'a'
   403   0010B1  73                 	db	115	;'s'
   404   0010B2  73                 	db	115	;'s'
   405   0010B3  20                 	db	32
   406   0010B4  53                 	db	83	;'S'
   407   0010B5  61                 	db	97	;'a'
   408   0010B6  76                 	db	118	;'v'
   409   0010B7  65                 	db	101	;'e'
   410   0010B8  64                 	db	100	;'d'
   411   0010B9  00                 	db	0
   412   0010BA                     STR_4:
   413   0010BA  46                 	db	70	;'F'
   414   0010BB  69                 	db	105	;'i'
   415   0010BC  72                 	db	114	;'r'
   416   0010BD  73                 	db	115	;'s'
   417   0010BE  74                 	db	116	;'t'
   418   0010BF  20                 	db	32
   419   0010C0  54                 	db	84	;'T'
   420   0010C1  69                 	db	105	;'i'
   421   0010C2  6D                 	db	109	;'m'
   422   0010C3  65                 	db	101	;'e'
   423   0010C4  00                 	db	0
   424   0010C5                     STR_18:
   425   0010C5  57                 	db	87	;'W'
   426   0010C6  72                 	db	114	;'r'
   427   0010C7  6F                 	db	111	;'o'
   428   0010C8  6E                 	db	110	;'n'
   429   0010C9  67                 	db	103	;'g'
   430   0010CA  20                 	db	32
   431   0010CB  50                 	db	80	;'P'
   432   0010CC  61                 	db	97	;'a'
   433   0010CD  73                 	db	115	;'s'
   434   0010CE  73                 	db	115	;'s'
   435   0010CF  00                 	db	0
   436   0010D0                     STR_19:
   437   0010D0  54                 	db	84	;'T'
   438   0010D1  72                 	db	114	;'r'
   439   0010D2  69                 	db	105	;'i'
   440   0010D3  65                 	db	101	;'e'
   441   0010D4  73                 	db	115	;'s'
   442   0010D5  20                 	db	32
   443   0010D6  4C                 	db	76	;'L'
   444   0010D7  65                 	db	101	;'e'
   445   0010D8  66                 	db	102	;'f'
   446   0010D9  74                 	db	116	;'t'
   447   0010DA  00                 	db	0
   448   0010DB                     STR_5:
   449   0010DB  53                 	db	83	;'S'
   450   0010DC  65                 	db	101	;'e'
   451   0010DD  74                 	db	116	;'t'
   452   0010DE  20                 	db	32
   453   0010DF  50                 	db	80	;'P'
   454   0010E0  61                 	db	97	;'a'
   455   0010E1  73                 	db	115	;'s'
   456   0010E2  73                 	db	115	;'s'
   457   0010E3  20                 	db	32
   458   0010E4  00                 	db	0
   459   0010E5                     STR_21:
   460   0010E5  25                 	db	37
   461   0010E6  69                 	db	105	;'i'
   462   0010E7  00                 	db	0
   463   0010E8  00                 	db	0	; dummy byte at the end
   464   000000                     
   465                           ; #config settings
   466                           
   467                           	psect	cinit
   468   002582                     __pcinit:
   469                           	callstack 0
   470   002582                     start_initialization:
   471                           	callstack 0
   472   002582                     __initialization:
   473                           	callstack 0
   474                           
   475                           ; Initialize objects allocated to COMRAM (64 bytes)
   476                           ; load TBLPTR registers with __pidataCOMRAM
   477   002582  0ED4               	movlw	low __pidataCOMRAM
   478   002584  6EF6               	movwf	tblptrl,c
   479   002586  0E23               	movlw	high __pidataCOMRAM
   480   002588  6EF7               	movwf	tblptrh,c
   481   00258A  0E00               	movlw	low (__pidataCOMRAM shr (0+16))
   482   00258C  6EF8               	movwf	tblptru,c
   483   00258E  EE00  F001         	lfsr	0,__pdataCOMRAM
   484   002592  EE10 F040          	lfsr	1,64
   485   002596                     copy_data0:
   486   002596  0009               	tblrd		*+
   487   002598  CFF5 FFEE          	movff	tablat,postinc0
   488   00259C  50E5               	movf	postdec1,w,c
   489   00259E  50E1               	movf	fsr1l,w,c
   490   0025A0  E1FA               	bnz	copy_data0
   491                           
   492                           ; Clear objects allocated to COMRAM (20 bytes)
   493   0025A2  EE00  F05C         	lfsr	0,__pbssCOMRAM
   494   0025A6  0E14               	movlw	20
   495   0025A8                     clear_0:
   496   0025A8  6AEE               	clrf	postinc0,c
   497   0025AA  06E8               	decf	wreg,f,c
   498   0025AC  E1FD               	bnz	clear_0
   499   0025AE                     end_of_initialization:
   500                           	callstack 0
   501   0025AE                     __end_of__initialization:
   502                           	callstack 0
   503   0025AE  9070               	bcf	int$flags,0,c	;clear compiler interrupt flag (level 1)
   504   0025B0  9270               	bcf	int$flags,1,c	;clear compiler interrupt flag (level 2)
   505   0025B2  0100               	movlb	0
   506   0025B4  EF75  F008         	goto	_main	;jump to C main() function
   507                           
   508                           	psect	bssCOMRAM
   509   00005C                     __pbssCOMRAM:
   510                           	callstack 0
   511   00005C                     	ds	6
   512   000062                     _preload_timer1:
   513                           	callstack 0
   514   000062                     	ds	2
   515   000064                     _TIMER1_interruptHandler:
   516                           	callstack 0
   517   000064                     	ds	2
   518   000066                     _preload_timer:
   519                           	callstack 0
   520   000066                     	ds	2
   521   000068                     _TIMER0_interruptHandler:
   522                           	callstack 0
   523   000068                     	ds	2
   524   00006A                     _u16DelayCounter:
   525                           	callstack 0
   526   00006A                     	ds	2
   527   00006C                     _SessionCounter:
   528                           	callstack 0
   529   00006C                     	ds	2
   530   00006E                     _PassTriesCount:
   531                           	callstack 0
   532   00006E                     	ds	1
   533   00006F                     _BlockModeFlag:
   534                           	callstack 0
   535   00006F                     	ds	1
   536                           
   537                           	psect	dataCOMRAM
   538   000001                     __pdataCOMRAM:
   539                           	callstack 0
   540   000001                     _port_registers:
   541                           	callstack 0
   542   000001                     	ds	10
   543   00000B                     _lat_registers:
   544                           	callstack 0
   545   00000B                     	ds	10
   546   000015                     _tris_registers:
   547                           	callstack 0
   548   000015                     	ds	10
   549   00001F                     main@F3197:
   550                           	callstack 0
   551   00001F                     	ds	4
   552   000023                     main@F3195:
   553                           	callstack 0
   554   000023                     	ds	4
   555   000027                     main@F3192:
   556                           	callstack 0
   557   000027                     	ds	4
   558   00002B                     _Keypad_Obj:
   559                           	callstack 0
   560   00002B                     	ds	8
   561   000033                     _TimerDelay:
   562                           	callstack 0
   563   000033                     	ds	6
   564   000039                     _Lcd_Obj:
   565                           	callstack 0
   566   000039                     	ds	6
   567   00003F                     _DC_Obj:
   568                           	callstack 0
   569   00003F                     	ds	2
   570                           
   571                           	psect	cstackBANK0
   572   000080                     __pcstackBANK0:
   573                           	callstack 0
   574   000080                     main@Pass:
   575                           	callstack 0
   576                           
   577                           ; 4 bytes @ 0x0
   578   000080                     	ds	4
   579   000084                     main@Pass_239:
   580                           	callstack 0
   581                           
   582                           ; 4 bytes @ 0x4
   583   000084                     	ds	4
   584   000088                     main@PassStored:
   585                           	callstack 0
   586                           
   587                           ; 4 bytes @ 0x8
   588   000088                     	ds	4
   589   00008C                     main@PassCounter:
   590                           	callstack 0
   591                           
   592                           ; 1 bytes @ 0xC
   593   00008C                     	ds	1
   594   00008D                     main@PassCounter_237:
   595                           	callstack 0
   596                           
   597                           ; 1 bytes @ 0xD
   598   00008D                     	ds	1
   599   00008E                     main@u8KeyPadPressed:
   600                           	callstack 0
   601                           
   602                           ; 1 bytes @ 0xE
   603   00008E                     	ds	1
   604                           
   605                           	psect	cstackCOMRAM
   606   000041                     __pcstackCOMRAM:
   607                           	callstack 0
   608   000041                     ??_interruptManager:
   609   000041                     
   610                           ; 2 bytes @ 0x0
   611   000041                     	ds	2
   612   000043                     u8ComparePass@Pass1:
   613                           	callstack 0
   614   000043                     eeprom_WriteDataByte@badd:
   615                           	callstack 0
   616   000043                     eeprom_ReadDataByte@badd:
   617                           	callstack 0
   618   000043                     gpio_Pin_Derction_Intialize@pin_config:
   619                           	callstack 0
   620   000043                     gpio_Pin_Write_Logic@pin_config:
   621                           	callstack 0
   622   000043                     gpio_Pin_Read_Logic@pin_config:
   623                           	callstack 0
   624   000043                     Timer0_DeInit@_timer:
   625                           	callstack 0
   626   000043                     Timer0_prescaler_selcet@_timer:
   627                           	callstack 0
   628   000043                     Timer0_mode_of_register_size_selcet@_timer:
   629                           	callstack 0
   630   000043                     Timer0_mode_timer_or_counter_selcet@_timer:
   631                           	callstack 0
   632                           
   633                           ; 2 bytes @ 0x2
   634   000043                     	ds	2
   635   000045                     ??_gpio_Pin_Derction_Intialize:
   636   000045                     ??_Timer0_prescaler_selcet:
   637   000045                     eeprom_WriteDataByte@data:
   638                           	callstack 0
   639   000045                     gpio_Pin_Write_Logic@logic:
   640                           	callstack 0
   641   000045                     u8ComparePass@Pass2:
   642                           	callstack 0
   643   000045                     eeprom_ReadDataByte@data:
   644                           	callstack 0
   645   000045                     gpio_Pin_Read_Logic@logic:
   646                           	callstack 0
   647                           
   648                           ; 2 bytes @ 0x4
   649   000045                     	ds	1
   650   000046                     ??_gpio_Pin_Write_Logic:
   651   000046                     eeprom_WriteDataByte@interrupt_status:
   652                           	callstack 0
   653   000046                     Timer0_Init@_timer:
   654                           	callstack 0
   655                           
   656                           ; 2 bytes @ 0x5
   657   000046                     	ds	1
   658   000047                     ??_gpio_Pin_Read_Logic:
   659   000047                     u8ComparePass@Size:
   660                           	callstack 0
   661   000047                     u8PassIsSetOrNotSet@Address:
   662                           	callstack 0
   663   000047                     vWriteBlockOnEEPROM@u16TheStartAddress:
   664                           	callstack 0
   665   000047                     vReadBlockOnEEPROM@u16TheStartAddress:
   666                           	callstack 0
   667                           
   668                           ; 2 bytes @ 0x6
   669   000047                     	ds	1
   670   000048                     ??_Timer0_Init:
   671                           
   672                           ; 1 bytes @ 0x7
   673   000048                     	ds	1
   674   000049                     u8PassIsSetOrNotSet@u8LocDataAdd:
   675                           	callstack 0
   676   000049                     vWriteBlockOnEEPROM@Pass:
   677                           	callstack 0
   678   000049                     vReadBlockOnEEPROM@Pass:
   679                           	callstack 0
   680                           
   681                           ; 2 bytes @ 0x8
   682   000049                     	ds	1
   683   00004A                     u8ComparePass@PassFlag:
   684                           	callstack 0
   685   00004A                     __TimerDelay_ms@u16CopyDelay:
   686                           	callstack 0
   687                           
   688                           ; 2 bytes @ 0x9
   689   00004A                     	ds	1
   690   00004B                     vWriteBlockOnEEPROM@Size:
   691                           	callstack 0
   692   00004B                     vReadBlockOnEEPROM@Size:
   693                           	callstack 0
   694   00004B                     u8ComparePass@PassCounter:
   695                           	callstack 0
   696   00004B                     gpio_Pin_Derction_Intialize@ret:
   697                           	callstack 0
   698                           
   699                           ; 1 bytes @ 0xA
   700   00004B                     	ds	1
   701   00004C                     ??_vWriteBlockOnEEPROM:
   702   00004C                     ??_vReadBlockOnEEPROM:
   703   00004C                     gpio_Pin_Write_Logic@ret:
   704                           	callstack 0
   705   00004C                     gpio_Pin_Read_Logic@ret:
   706                           	callstack 0
   707                           
   708                           ; 1 bytes @ 0xB
   709   00004C                     	ds	1
   710   00004D                     send_data_4bit_mode@_lcd:
   711                           	callstack 0
   712   00004D                     send_4bit_mode_enable@_lcd:
   713                           	callstack 0
   714   00004D                     dc_motor_move_right@dc_motor:
   715                           	callstack 0
   716   00004D                     dc_motor_move_left@dc_motor:
   717                           	callstack 0
   718   00004D                     dc_motor_stop@dc_motor:
   719                           	callstack 0
   720   00004D                     keypad_get_value@_keypad_obj:
   721                           	callstack 0
   722   00004D                     gpio_Pin_Intialize@pin_config:
   723                           	callstack 0
   724                           
   725                           ; 2 bytes @ 0xC
   726   00004D                     	ds	2
   727   00004F                     ??_gpio_Pin_Intialize:
   728   00004F                     send_data_4bit_mode@data:
   729                           	callstack 0
   730   00004F                     send_4bit_mode_enable@ret:
   731                           	callstack 0
   732   00004F                     dc_motor_move_right@ret:
   733                           	callstack 0
   734   00004F                     dc_motor_move_left@ret:
   735                           	callstack 0
   736   00004F                     dc_motor_stop@ret:
   737                           	callstack 0
   738   00004F                     vWriteBlockOnEEPROM@LOC_Iterator:
   739                           	callstack 0
   740   00004F                     vReadBlockOnEEPROM@LOC_Iterator:
   741                           	callstack 0
   742   00004F                     keypad_get_value@value:
   743                           	callstack 0
   744                           
   745                           ; 2 bytes @ 0xE
   746   00004F                     	ds	1
   747   000050                     send_data_4bit_mode@ret:
   748                           	callstack 0
   749   000050                     gpio_Pin_Intialize@ret:
   750                           	callstack 0
   751                           
   752                           ; 1 bytes @ 0xF
   753   000050                     	ds	1
   754   000051                     ??_keypad_get_value:
   755   000051                     lcd_4bit_send_command@_lcd:
   756                           	callstack 0
   757   000051                     lcd_4bit_send_char_data@_lcd:
   758                           	callstack 0
   759   000051                     dc_motor_initialize@dc_motor:
   760                           	callstack 0
   761   000051                     keypad_initialize@_keypad_obj:
   762                           	callstack 0
   763                           
   764                           ; 2 bytes @ 0x10
   765   000051                     	ds	2
   766   000053                     ??_keypad_initialize:
   767   000053                     lcd_4bit_send_command@command:
   768                           	callstack 0
   769   000053                     lcd_4bit_send_char_data@data:
   770                           	callstack 0
   771   000053                     dc_motor_initialize@ret:
   772                           	callstack 0
   773   000053                     keypad_get_value@column_logic_pin:
   774                           	callstack 0
   775                           
   776                           ; 1 bytes @ 0x12
   777   000053                     	ds	1
   778   000054                     lcd_4bit_send_command@ret:
   779                           	callstack 0
   780   000054                     lcd_4bit_send_char_data@ret:
   781                           	callstack 0
   782   000054                     keypad_get_value@l_counter:
   783                           	callstack 0
   784                           
   785                           ; 1 bytes @ 0x13
   786   000054                     	ds	1
   787   000055                     keypad_initialize@keypad_rows:
   788                           	callstack 0
   789   000055                     keypad_get_value@counter_rows:
   790                           	callstack 0
   791   000055                     lcd_4bit_initialize@_lcd:
   792                           	callstack 0
   793   000055                     lcd_4bit_send_string_data@_lcd:
   794                           	callstack 0
   795   000055                     set_cursor_4bit_mode@_lcd:
   796                           	callstack 0
   797                           
   798                           ; 2 bytes @ 0x14
   799   000055                     	ds	1
   800   000056                     keypad_initialize@keypad_colums:
   801                           	callstack 0
   802   000056                     keypad_get_value@counter_colums:
   803                           	callstack 0
   804                           
   805                           ; 1 bytes @ 0x15
   806   000056                     	ds	1
   807   000057                     ??_lcd_4bit_initialize:
   808   000057                     set_cursor_4bit_mode@row:
   809                           	callstack 0
   810   000057                     lcd_4bit_send_string_data@str:
   811                           	callstack 0
   812                           
   813                           ; 2 bytes @ 0x16
   814   000057                     	ds	1
   815   000058                     set_cursor_4bit_mode@column:
   816                           	callstack 0
   817                           
   818                           ; 1 bytes @ 0x17
   819   000058                     	ds	1
   820   000059                     ??_set_cursor_4bit_mode:
   821   000059                     lcd_4bit_initialize@l_counter:
   822                           	callstack 0
   823                           
   824                           ; 1 bytes @ 0x18
   825   000059                     	ds	1
   826   00005A                     lcd_4bit_initialize@ret:
   827                           	callstack 0
   828                           
   829                           ; 1 bytes @ 0x19
   830   00005A                     	ds	1
   831   00005B                     set_cursor_4bit_mode@ret:
   832                           	callstack 0
   833                           
   834                           ; 1 bytes @ 0x1A
   835   00005B                     	ds	1
   836   00005C                     
   837                           ; 1 bytes @ 0x1B
   838 ;;
   839 ;;Main: autosize = 0, tempsize = 0, incstack = 0, save=0
   840 ;;
   841 ;; *************** function _main *****************
   842 ;; Defined at:
   843 ;;		line 17 in file "application.c"
   844 ;; Parameters:    Size  Location     Type
   845 ;;		None
   846 ;; Auto vars:     Size  Location     Type
   847 ;;  PassStored      4    8[BANK0 ] unsigned char [4]
   848 ;;  Pass            4    4[BANK0 ] unsigned char [4]
   849 ;;  PassCounter     1   13[BANK0 ] unsigned char 
   850 ;;  Pass            4    0[BANK0 ] unsigned char [4]
   851 ;;  PassCounter     1   12[BANK0 ] unsigned char 
   852 ;;  u8KeyPadPres    1   14[BANK0 ] unsigned char 
   853 ;; Return value:  Size  Location     Type
   854 ;;                  2   54[None  ] int 
   855 ;; Registers used:
   856 ;;		wreg, fsr1l, fsr1h, fsr2l, fsr2h, status,2, status,0, tblptrl, tblptrh, tblptru, prodl, prodh, cstack
   857 ;; Tracked objects:
   858 ;;		On entry : 0/0
   859 ;;		On exit  : 0/0
   860 ;;		Unchanged: 0/0
   861 ;; Data sizes:     COMRAM   BANK0   BANK1   BANK2   BANK3   BANK4   BANK5   BANK6   BANK7   BANK8   BANK9  BANK10  BANK1
      +1  BANK12  BANK13  BANK14  BANK15
   862 ;;      Params:         0       0       0       0       0       0       0       0       0       0       0       0       
      +0       0       0       0       0
   863 ;;      Locals:         0      15       0       0       0       0       0       0       0       0       0       0       
      +0       0       0       0       0
   864 ;;      Temps:          0       0       0       0       0       0       0       0       0       0       0       0       
      +0       0       0       0       0
   865 ;;      Totals:         0      15       0       0       0       0       0       0       0       0       0       0       
      +0       0       0       0       0
   866 ;;Total ram usage:       15 bytes
   867 ;; Hardware stack levels required when called: 7
   868 ;; This function calls:
   869 ;;		__TimerDelay_ms
   870 ;;		_dc_motor_initialize
   871 ;;		_dc_motor_move_left
   872 ;;		_dc_motor_move_right
   873 ;;		_dc_motor_stop
   874 ;;		_eeprom_WriteDataByte
   875 ;;		_keypad_get_value
   876 ;;		_keypad_initialize
   877 ;;		_lcd_4bit_initialize
   878 ;;		_lcd_4bit_send_char_data
   879 ;;		_lcd_4bit_send_command
   880 ;;		_lcd_4bit_send_string_data
   881 ;;		_set_cursor_4bit_mode
   882 ;;		_u8ComparePass
   883 ;;		_u8PassIsSetOrNotSet
   884 ;;		_vReadBlockOnEEPROM
   885 ;;		_vWriteBlockOnEEPROM
   886 ;; This function is called by:
   887 ;;		Startup code after reset
   888 ;; This function uses a non-reentrant model
   889 ;;
   890                           
   891                           	psect	text0
   892   0010EA                     __ptext0:
   893                           	callstack 0
   894   0010EA                     _main:
   895                           	callstack 24
   896   0010EA                     
   897                           ;application.c: 19:     ADCON1bits.PCFG=0x0F;
   898   0010EA  0E0F               	movlw	15
   899   0010EC  12C1               	iorwf	193,f,c	;volatile
   900   0010EE                     
   901                           ;application.c: 20:     keypad_initialize(&Keypad_Obj);
   902   0010EE  0E2B               	movlw	low _Keypad_Obj
   903   0010F0  6E51               	movwf	keypad_initialize@_keypad_obj^0,c
   904   0010F2  0E00               	movlw	high _Keypad_Obj
   905   0010F4  6E52               	movwf	(keypad_initialize@_keypad_obj+1)^0,c
   906   0010F6  EC8F  F00F         	call	_keypad_initialize	;wreg free
   907   0010FA                     
   908                           ;application.c: 21:     lcd_4bit_initialize(&Lcd_Obj);
   909   0010FA  0E39               	movlw	low _Lcd_Obj
   910   0010FC  6E55               	movwf	lcd_4bit_initialize@_lcd^0,c
   911   0010FE  0E00               	movlw	high _Lcd_Obj
   912   001100  6E56               	movwf	(lcd_4bit_initialize@_lcd+1)^0,c
   913   001102  ECF0  F00C         	call	_lcd_4bit_initialize	;wreg free
   914   001106                     
   915                           ;application.c: 22:     dc_motor_initialize(&DC_Obj);
   916   001106  0E3F               	movlw	low _DC_Obj
   917   001108  6E51               	movwf	dc_motor_initialize@dc_motor^0,c
   918   00110A  0E00               	movlw	high _DC_Obj
   919   00110C  6E52               	movwf	(dc_motor_initialize@dc_motor+1)^0,c
   920   00110E  ECA5  F012         	call	_dc_motor_initialize	;wreg free
   921   001112                     
   922                           ;application.c: 26:     lcd_4bit_send_string_data(&Lcd_Obj,"Welcome to Smart");
   923   001112  0E39               	movlw	low _Lcd_Obj
   924   001114  6E55               	movwf	lcd_4bit_send_string_data@_lcd^0,c
   925   001116  0E00               	movlw	high _Lcd_Obj
   926   001118  6E56               	movwf	(lcd_4bit_send_string_data@_lcd+1)^0,c
   927   00111A  0E25               	movlw	low STR_1
   928   00111C  6E57               	movwf	lcd_4bit_send_string_data@str^0,c
   929   00111E  0E10               	movlw	high STR_1
   930   001120  6E58               	movwf	(lcd_4bit_send_string_data@str+1)^0,c
   931   001122  EC21  F011         	call	_lcd_4bit_send_string_data	;wreg free
   932   001126                     
   933                           ;application.c: 27:     set_cursor_4bit_mode(&Lcd_Obj,2,3);
   934   001126  0E39               	movlw	low _Lcd_Obj
   935   001128  6E55               	movwf	set_cursor_4bit_mode@_lcd^0,c
   936   00112A  0E00               	movlw	high _Lcd_Obj
   937   00112C  6E56               	movwf	(set_cursor_4bit_mode@_lcd+1)^0,c
   938   00112E  0E02               	movlw	2
   939   001130  6E57               	movwf	set_cursor_4bit_mode@row^0,c
   940   001132  0E03               	movlw	3
   941   001134  6E58               	movwf	set_cursor_4bit_mode@column^0,c
   942   001136  EC04  F00E         	call	_set_cursor_4bit_mode	;wreg free
   943   00113A                     
   944                           ;application.c: 28:     lcd_4bit_send_string_data(&Lcd_Obj,"Door System");
   945   00113A  0E39               	movlw	low _Lcd_Obj
   946   00113C  6E55               	movwf	lcd_4bit_send_string_data@_lcd^0,c
   947   00113E  0E00               	movlw	high _Lcd_Obj
   948   001140  6E56               	movwf	(lcd_4bit_send_string_data@_lcd+1)^0,c
   949   001142  0E8C               	movlw	low STR_2
   950   001144  6E57               	movwf	lcd_4bit_send_string_data@str^0,c
   951   001146  0E10               	movlw	high STR_2
   952   001148  6E58               	movwf	(lcd_4bit_send_string_data@str+1)^0,c
   953   00114A  EC21  F011         	call	_lcd_4bit_send_string_data	;wreg free
   954   00114E                     
   955                           ;application.c: 29:     _TimerDelay_ms(2000);
   956   00114E  0E07               	movlw	7
   957   001150  6E4B               	movwf	(__TimerDelay_ms@u16CopyDelay+1)^0,c
   958   001152  0ED0               	movlw	208
   959   001154  6E4A               	movwf	__TimerDelay_ms@u16CopyDelay^0,c
   960   001156  EC77  F011         	call	__TimerDelay_ms	;wreg free
   961   00115A                     
   962                           ;application.c: 30:     lcd_4bit_send_command(&Lcd_Obj,0x01);
   963   00115A  0E39               	movlw	low _Lcd_Obj
   964   00115C  6E51               	movwf	lcd_4bit_send_command@_lcd^0,c
   965   00115E  0E00               	movlw	high _Lcd_Obj
   966   001160  6E52               	movwf	(lcd_4bit_send_command@_lcd+1)^0,c
   967   001162  0E01               	movlw	1
   968   001164  6E53               	movwf	lcd_4bit_send_command@command^0,c
   969   001166  EC04  F010         	call	_lcd_4bit_send_command	;wreg free
   970   00116A                     
   971                           ;application.c: 33:     if((uint8)0X00 !=u8PassIsSetOrNotSet((uint16)0X0005)){
   972   00116A  0E00               	movlw	0
   973   00116C  6E48               	movwf	(u8PassIsSetOrNotSet@Address+1)^0,c
   974   00116E  0E05               	movlw	5
   975   001170  6E47               	movwf	u8PassIsSetOrNotSet@Address^0,c
   976   001172  EC05  F013         	call	_u8PassIsSetOrNotSet	;wreg free
   977   001176  0900               	iorlw	0
   978   001178  B4D8               	btfsc	status,2,c
   979   00117A  EFC1  F008         	goto	u2921
   980   00117E  EFC3  F008         	goto	u2920
   981   001182                     u2921:
   982   001182  EFA0  F009         	goto	l4259
   983   001186                     u2920:
   984   001186                     
   985                           ;application.c: 34:         lcd_4bit_send_command(&Lcd_Obj,0x01);
   986   001186  0E39               	movlw	low _Lcd_Obj
   987   001188  6E51               	movwf	lcd_4bit_send_command@_lcd^0,c
   988   00118A  0E00               	movlw	high _Lcd_Obj
   989   00118C  6E52               	movwf	(lcd_4bit_send_command@_lcd+1)^0,c
   990   00118E  0E01               	movlw	1
   991   001190  6E53               	movwf	lcd_4bit_send_command@command^0,c
   992   001192  EC04  F010         	call	_lcd_4bit_send_command	;wreg free
   993   001196                     
   994                           ;application.c: 35:         lcd_4bit_send_string_data(&Lcd_Obj,"Login For The");
   995   001196  0E39               	movlw	low _Lcd_Obj
   996   001198  6E55               	movwf	lcd_4bit_send_string_data@_lcd^0,c
   997   00119A  0E00               	movlw	high _Lcd_Obj
   998   00119C  6E56               	movwf	(lcd_4bit_send_string_data@_lcd+1)^0,c
   999   00119E  0E71               	movlw	low STR_3
  1000   0011A0  6E57               	movwf	lcd_4bit_send_string_data@str^0,c
  1001   0011A2  0E10               	movlw	high STR_3
  1002   0011A4  6E58               	movwf	(lcd_4bit_send_string_data@str+1)^0,c
  1003   0011A6  EC21  F011         	call	_lcd_4bit_send_string_data	;wreg free
  1004   0011AA                     
  1005                           ;application.c: 36:         set_cursor_4bit_mode(&Lcd_Obj,2,3);
  1006   0011AA  0E39               	movlw	low _Lcd_Obj
  1007   0011AC  6E55               	movwf	set_cursor_4bit_mode@_lcd^0,c
  1008   0011AE  0E00               	movlw	high _Lcd_Obj
  1009   0011B0  6E56               	movwf	(set_cursor_4bit_mode@_lcd+1)^0,c
  1010   0011B2  0E02               	movlw	2
  1011   0011B4  6E57               	movwf	set_cursor_4bit_mode@row^0,c
  1012   0011B6  0E03               	movlw	3
  1013   0011B8  6E58               	movwf	set_cursor_4bit_mode@column^0,c
  1014   0011BA  EC04  F00E         	call	_set_cursor_4bit_mode	;wreg free
  1015                           
  1016                           ;application.c: 37:         lcd_4bit_send_string_data(&Lcd_Obj,"First Time");
  1017   0011BE  0E39               	movlw	low _Lcd_Obj
  1018   0011C0  6E55               	movwf	lcd_4bit_send_string_data@_lcd^0,c
  1019   0011C2  0E00               	movlw	high _Lcd_Obj
  1020   0011C4  6E56               	movwf	(lcd_4bit_send_string_data@_lcd+1)^0,c
  1021   0011C6  0EBA               	movlw	low STR_4
  1022   0011C8  6E57               	movwf	lcd_4bit_send_string_data@str^0,c
  1023   0011CA  0E10               	movlw	high STR_4
  1024   0011CC  6E58               	movwf	(lcd_4bit_send_string_data@str+1)^0,c
  1025   0011CE  EC21  F011         	call	_lcd_4bit_send_string_data	;wreg free
  1026   0011D2                     
  1027                           ;application.c: 38:         _TimerDelay_ms(2000);
  1028   0011D2  0E07               	movlw	7
  1029   0011D4  6E4B               	movwf	(__TimerDelay_ms@u16CopyDelay+1)^0,c
  1030   0011D6  0ED0               	movlw	208
  1031   0011D8  6E4A               	movwf	__TimerDelay_ms@u16CopyDelay^0,c
  1032   0011DA  EC77  F011         	call	__TimerDelay_ms	;wreg free
  1033   0011DE                     
  1034                           ;application.c: 39:         lcd_4bit_send_command(&Lcd_Obj,0x01);
  1035   0011DE  0E39               	movlw	low _Lcd_Obj
  1036   0011E0  6E51               	movwf	lcd_4bit_send_command@_lcd^0,c
  1037   0011E2  0E00               	movlw	high _Lcd_Obj
  1038   0011E4  6E52               	movwf	(lcd_4bit_send_command@_lcd+1)^0,c
  1039   0011E6  0E01               	movlw	1
  1040   0011E8  6E53               	movwf	lcd_4bit_send_command@command^0,c
  1041   0011EA  EC04  F010         	call	_lcd_4bit_send_command	;wreg free
  1042   0011EE                     
  1043                           ;application.c: 40:         lcd_4bit_send_string_data(&Lcd_Obj,"Set Pass ");
  1044   0011EE  0E39               	movlw	low _Lcd_Obj
  1045   0011F0  6E55               	movwf	lcd_4bit_send_string_data@_lcd^0,c
  1046   0011F2  0E00               	movlw	high _Lcd_Obj
  1047   0011F4  6E56               	movwf	(lcd_4bit_send_string_data@_lcd+1)^0,c
  1048   0011F6  0EDB               	movlw	low STR_5
  1049   0011F8  6E57               	movwf	lcd_4bit_send_string_data@str^0,c
  1050   0011FA  0E10               	movlw	high STR_5
  1051   0011FC  6E58               	movwf	(lcd_4bit_send_string_data@str+1)^0,c
  1052   0011FE  EC21  F011         	call	_lcd_4bit_send_string_data	;wreg free
  1053   001202                     
  1054                           ;application.c: 41:         set_cursor_4bit_mode(&Lcd_Obj,2,1);
  1055   001202  0E39               	movlw	low _Lcd_Obj
  1056   001204  6E55               	movwf	set_cursor_4bit_mode@_lcd^0,c
  1057   001206  0E00               	movlw	high _Lcd_Obj
  1058   001208  6E56               	movwf	(set_cursor_4bit_mode@_lcd+1)^0,c
  1059   00120A  0E02               	movlw	2
  1060   00120C  6E57               	movwf	set_cursor_4bit_mode@row^0,c
  1061   00120E  0E01               	movlw	1
  1062   001210  6E58               	movwf	set_cursor_4bit_mode@column^0,c
  1063   001212  EC04  F00E         	call	_set_cursor_4bit_mode	;wreg free
  1064   001216                     
  1065                           ;application.c: 42:         lcd_4bit_send_string_data(&Lcd_Obj,"The Pass :");
  1066   001216  0E39               	movlw	low _Lcd_Obj
  1067   001218  6E55               	movwf	lcd_4bit_send_string_data@_lcd^0,c
  1068   00121A  0E00               	movlw	high _Lcd_Obj
  1069   00121C  6E56               	movwf	(lcd_4bit_send_string_data@_lcd+1)^0,c
  1070   00121E  0EA4               	movlw	low STR_6
  1071   001220  6E57               	movwf	lcd_4bit_send_string_data@str^0,c
  1072   001222  0E10               	movlw	high STR_6
  1073   001224  6E58               	movwf	(lcd_4bit_send_string_data@str+1)^0,c
  1074   001226  EC21  F011         	call	_lcd_4bit_send_string_data	;wreg free
  1075   00122A                     
  1076                           ;application.c: 44:         uint8 PassCounter=0;
  1077   00122A  0E00               	movlw	0
  1078   00122C  0100               	movlb	0	; () banked
  1079   00122E  6F8C               	movwf	main@PassCounter& (0+255),b
  1080   001230                     
  1081                           ; BSR set to: 0
  1082                           ;application.c: 45:         uint8 Pass[(uint8)4]={0XFF,0XFF,0XFF,0XFF};
  1083   001230  C027  F080         	movff	main@F3192,main@Pass
  1084   001234  C028  F081         	movff	main@F3192+1,main@Pass+1
  1085   001238  C029  F082         	movff	main@F3192+2,main@Pass+2
  1086   00123C  C02A  F083         	movff	main@F3192+3,main@Pass+3
  1087                           
  1088                           ;application.c: 46:         while (PassCounter < (uint8)4){
  1089   001240  EF6A  F009         	goto	l4247
  1090   001244                     l59:
  1091                           
  1092                           ; BSR set to: 0
  1093                           ;application.c: 47:             u8KeyPadPressed=0XFF;
  1094   001244  698E               	setf	main@u8KeyPadPressed& (0+255),b
  1095                           
  1096                           ;application.c: 48:             while(u8KeyPadPressed == 0XFF){
  1097   001246  EF2F  F009         	goto	l4231
  1098   00124A                     l4229:
  1099                           
  1100                           ; BSR set to: 0
  1101                           ;application.c: 49:                 keypad_get_value(&Keypad_Obj,&u8KeyPadPressed);
  1102   00124A  0E2B               	movlw	low _Keypad_Obj
  1103   00124C  6E4D               	movwf	keypad_get_value@_keypad_obj^0,c
  1104   00124E  0E00               	movlw	high _Keypad_Obj
  1105   001250  6E4E               	movwf	(keypad_get_value@_keypad_obj+1)^0,c
  1106   001252  0E8E               	movlw	low main@u8KeyPadPressed
  1107   001254  6E4F               	movwf	keypad_get_value@value^0,c
  1108   001256  0E00               	movlw	high main@u8KeyPadPressed
  1109   001258  6E50               	movwf	(keypad_get_value@value+1)^0,c
  1110   00125A  EC80  F00D         	call	_keypad_get_value	;wreg free
  1111   00125E                     l4231:
  1112                           
  1113                           ;application.c: 48:             while(u8KeyPadPressed == 0XFF){
  1114   00125E  0100               	movlb	0	; () banked
  1115   001260  298E               	incf	main@u8KeyPadPressed& (0+255),w,b
  1116   001262  B4D8               	btfsc	status,2,c
  1117   001264  EF36  F009         	goto	u2931
  1118   001268  EF38  F009         	goto	u2930
  1119   00126C                     u2931:
  1120   00126C  EF25  F009         	goto	l4229
  1121   001270                     u2930:
  1122   001270                     
  1123                           ; BSR set to: 0
  1124                           ;application.c: 51:             Pass[PassCounter]=u8KeyPadPressed;
  1125   001270  0E80               	movlw	low main@Pass
  1126   001272  258C               	addwf	main@PassCounter& (0+255),w,b
  1127   001274  6ED9               	movwf	fsr2l,c
  1128   001276  6ADA               	clrf	fsr2h,c
  1129   001278  0E00               	movlw	high main@Pass
  1130   00127A  22DA               	addwfc	fsr2h,f,c
  1131   00127C  C08E  FFDF         	movff	main@u8KeyPadPressed,indf2
  1132   001280                     
  1133                           ; BSR set to: 0
  1134                           ;application.c: 52:             lcd_4bit_send_char_data(&Lcd_Obj,u8KeyPadPressed);
  1135   001280  0E39               	movlw	low _Lcd_Obj
  1136   001282  6E51               	movwf	lcd_4bit_send_char_data@_lcd^0,c
  1137   001284  0E00               	movlw	high _Lcd_Obj
  1138   001286  6E52               	movwf	(lcd_4bit_send_char_data@_lcd+1)^0,c
  1139   001288  C08E  F053         	movff	main@u8KeyPadPressed,lcd_4bit_send_char_data@data
  1140   00128C  ECCB  F00F         	call	_lcd_4bit_send_char_data	;wreg free
  1141   001290                     
  1142                           ;application.c: 53:             _TimerDelay_ms((uint16)300);
  1143   001290  0E01               	movlw	1
  1144   001292  6E4B               	movwf	(__TimerDelay_ms@u16CopyDelay+1)^0,c
  1145   001294  0E2C               	movlw	44
  1146   001296  6E4A               	movwf	__TimerDelay_ms@u16CopyDelay^0,c
  1147   001298  EC77  F011         	call	__TimerDelay_ms	;wreg free
  1148   00129C                     
  1149                           ;application.c: 54:             set_cursor_4bit_mode(&Lcd_Obj,2,11+PassCounter);
  1150   00129C  0E39               	movlw	low _Lcd_Obj
  1151   00129E  6E55               	movwf	set_cursor_4bit_mode@_lcd^0,c
  1152   0012A0  0E00               	movlw	high _Lcd_Obj
  1153   0012A2  6E56               	movwf	(set_cursor_4bit_mode@_lcd+1)^0,c
  1154   0012A4  0E02               	movlw	2
  1155   0012A6  6E57               	movwf	set_cursor_4bit_mode@row^0,c
  1156   0012A8  0100               	movlb	0	; () banked
  1157   0012AA  518C               	movf	main@PassCounter& (0+255),w,b
  1158   0012AC  0F0B               	addlw	11
  1159   0012AE  6E58               	movwf	set_cursor_4bit_mode@column^0,c
  1160   0012B0  EC04  F00E         	call	_set_cursor_4bit_mode	;wreg free
  1161   0012B4                     
  1162                           ;application.c: 55:             lcd_4bit_send_char_data(&Lcd_Obj,(uint8)'*');
  1163   0012B4  0E39               	movlw	low _Lcd_Obj
  1164   0012B6  6E51               	movwf	lcd_4bit_send_char_data@_lcd^0,c
  1165   0012B8  0E00               	movlw	high _Lcd_Obj
  1166   0012BA  6E52               	movwf	(lcd_4bit_send_char_data@_lcd+1)^0,c
  1167   0012BC  0E2A               	movlw	42
  1168   0012BE  6E53               	movwf	lcd_4bit_send_char_data@data^0,c
  1169   0012C0  ECCB  F00F         	call	_lcd_4bit_send_char_data	;wreg free
  1170   0012C4                     
  1171                           ;application.c: 56:             _TimerDelay_ms(50);
  1172   0012C4  0E00               	movlw	0
  1173   0012C6  6E4B               	movwf	(__TimerDelay_ms@u16CopyDelay+1)^0,c
  1174   0012C8  0E32               	movlw	50
  1175   0012CA  6E4A               	movwf	__TimerDelay_ms@u16CopyDelay^0,c
  1176   0012CC  EC77  F011         	call	__TimerDelay_ms	;wreg free
  1177   0012D0                     
  1178                           ;application.c: 57:             PassCounter++;
  1179   0012D0  0100               	movlb	0	; () banked
  1180   0012D2  2B8C               	incf	main@PassCounter& (0+255),f,b
  1181   0012D4                     l4247:
  1182                           
  1183                           ; BSR set to: 0
  1184                           ;application.c: 46:         while (PassCounter < (uint8)4){
  1185   0012D4  0E03               	movlw	3
  1186   0012D6  658C               	cpfsgt	main@PassCounter& (0+255),b
  1187   0012D8  EF70  F009         	goto	u2941
  1188   0012DC  EF72  F009         	goto	u2940
  1189   0012E0                     u2941:
  1190   0012E0  EF22  F009         	goto	l59
  1191   0012E4                     u2940:
  1192   0012E4                     
  1193                           ; BSR set to: 0
  1194                           ;application.c: 59:         vWriteBlockOnEEPROM((uint16)0X0000,Pass,(uint8)4);
  1195   0012E4  0E00               	movlw	0
  1196   0012E6  6E48               	movwf	(vWriteBlockOnEEPROM@u16TheStartAddress+1)^0,c
  1197   0012E8  0E00               	movlw	0
  1198   0012EA  6E47               	movwf	vWriteBlockOnEEPROM@u16TheStartAddress^0,c
  1199   0012EC  0E80               	movlw	low main@Pass
  1200   0012EE  6E49               	movwf	vWriteBlockOnEEPROM@Pass^0,c
  1201   0012F0  0E00               	movlw	high main@Pass
  1202   0012F2  6E4A               	movwf	(vWriteBlockOnEEPROM@Pass+1)^0,c
  1203   0012F4  0E04               	movlw	4
  1204   0012F6  6E4B               	movwf	vWriteBlockOnEEPROM@Size^0,c
  1205   0012F8  EC6E  F010         	call	_vWriteBlockOnEEPROM	;wreg free
  1206   0012FC                     
  1207                           ;application.c: 60:         eeprom_WriteDataByte((uint16)0X0005,(uint8)0X00);
  1208   0012FC  0E00               	movlw	0
  1209   0012FE  6E44               	movwf	(eeprom_WriteDataByte@badd+1)^0,c
  1210   001300  0E05               	movlw	5
  1211   001302  6E43               	movwf	eeprom_WriteDataByte@badd^0,c
  1212   001304  0E00               	movlw	0
  1213   001306  6E45               	movwf	eeprom_WriteDataByte@data^0,c
  1214   001308  ECC8  F011         	call	_eeprom_WriteDataByte	;wreg free
  1215   00130C                     
  1216                           ;application.c: 61:         lcd_4bit_send_command(&Lcd_Obj,0x01);
  1217   00130C  0E39               	movlw	low _Lcd_Obj
  1218   00130E  6E51               	movwf	lcd_4bit_send_command@_lcd^0,c
  1219   001310  0E00               	movlw	high _Lcd_Obj
  1220   001312  6E52               	movwf	(lcd_4bit_send_command@_lcd+1)^0,c
  1221   001314  0E01               	movlw	1
  1222   001316  6E53               	movwf	lcd_4bit_send_command@command^0,c
  1223   001318  EC04  F010         	call	_lcd_4bit_send_command	;wreg free
  1224   00131C                     
  1225                           ;application.c: 62:         lcd_4bit_send_string_data(&Lcd_Obj,"Pass Saved");
  1226   00131C  0E39               	movlw	low _Lcd_Obj
  1227   00131E  6E55               	movwf	lcd_4bit_send_string_data@_lcd^0,c
  1228   001320  0E00               	movlw	high _Lcd_Obj
  1229   001322  6E56               	movwf	(lcd_4bit_send_string_data@_lcd+1)^0,c
  1230   001324  0EAF               	movlw	low STR_7
  1231   001326  6E57               	movwf	lcd_4bit_send_string_data@str^0,c
  1232   001328  0E10               	movlw	high STR_7
  1233   00132A  6E58               	movwf	(lcd_4bit_send_string_data@str+1)^0,c
  1234   00132C  EC21  F011         	call	_lcd_4bit_send_string_data	;wreg free
  1235   001330                     
  1236                           ;application.c: 63:         _TimerDelay_ms(1000);
  1237   001330  0E03               	movlw	3
  1238   001332  6E4B               	movwf	(__TimerDelay_ms@u16CopyDelay+1)^0,c
  1239   001334  0EE8               	movlw	232
  1240   001336  6E4A               	movwf	__TimerDelay_ms@u16CopyDelay^0,c
  1241   001338  EC77  F011         	call	__TimerDelay_ms	;wreg free
  1242                           
  1243                           ;application.c: 64:         }
  1244   00133C  EFBB  F009         	goto	l4265
  1245   001340                     l4259:
  1246                           
  1247                           ;application.c: 66:         BlockModeFlag=u8PassIsSetOrNotSet((uint16)0X0006);
  1248   001340  0E00               	movlw	0
  1249   001342  6E48               	movwf	(u8PassIsSetOrNotSet@Address+1)^0,c
  1250   001344  0E06               	movlw	6
  1251   001346  6E47               	movwf	u8PassIsSetOrNotSet@Address^0,c
  1252   001348  EC05  F013         	call	_u8PassIsSetOrNotSet	;wreg free
  1253   00134C  6E6F               	movwf	_BlockModeFlag^0,c
  1254   00134E                     
  1255                           ;application.c: 67:         lcd_4bit_send_command(&Lcd_Obj,0x01);
  1256   00134E  0E39               	movlw	low _Lcd_Obj
  1257   001350  6E51               	movwf	lcd_4bit_send_command@_lcd^0,c
  1258   001352  0E00               	movlw	high _Lcd_Obj
  1259   001354  6E52               	movwf	(lcd_4bit_send_command@_lcd+1)^0,c
  1260   001356  0E01               	movlw	1
  1261   001358  6E53               	movwf	lcd_4bit_send_command@command^0,c
  1262   00135A  EC04  F010         	call	_lcd_4bit_send_command	;wreg free
  1263   00135E                     
  1264                           ;application.c: 68:         lcd_4bit_send_string_data(&Lcd_Obj,"Set The Pass:");
  1265   00135E  0E39               	movlw	low _Lcd_Obj
  1266   001360  6E55               	movwf	lcd_4bit_send_string_data@_lcd^0,c
  1267   001362  0E00               	movlw	high _Lcd_Obj
  1268   001364  6E56               	movwf	(lcd_4bit_send_string_data@_lcd+1)^0,c
  1269   001366  0E55               	movlw	low STR_8
  1270   001368  6E57               	movwf	lcd_4bit_send_string_data@str^0,c
  1271   00136A  0E10               	movlw	high STR_8
  1272   00136C  6E58               	movwf	(lcd_4bit_send_string_data@str+1)^0,c
  1273   00136E  EC21  F011         	call	_lcd_4bit_send_string_data	;wreg free
  1274   001372  EFBB  F009         	goto	l4265
  1275   001376                     l64:
  1276   001376                     l4265:
  1277   001376                     
  1278                           ;application.c: 72:         uint8 PassCounter=0;
  1279   001376  0E00               	movlw	0
  1280   001378  0100               	movlb	0	; () banked
  1281   00137A  6F8D               	movwf	main@PassCounter_237& (0+255),b
  1282   00137C                     
  1283                           ; BSR set to: 0
  1284                           ;application.c: 73:         uint8 Pass[(uint8)4]={0XFF,0XFF,0XFF,0XFF};
  1285   00137C  C023  F084         	movff	main@F3195,main@Pass_239
  1286   001380  C024  F085         	movff	main@F3195+1,main@Pass_239+1
  1287   001384  C025  F086         	movff	main@F3195+2,main@Pass_239+2
  1288   001388  C026  F087         	movff	main@F3195+3,main@Pass_239+3
  1289   00138C                     
  1290                           ; BSR set to: 0
  1291                           ;application.c: 74:         uint8 PassStored[(uint8)4]={0XFF,0XFF,0XFF,0XFF};
  1292   00138C  C01F  F088         	movff	main@F3197,main@PassStored
  1293   001390  C020  F089         	movff	main@F3197+1,main@PassStored+1
  1294   001394  C021  F08A         	movff	main@F3197+2,main@PassStored+2
  1295   001398  C022  F08B         	movff	main@F3197+3,main@PassStored+3
  1296   00139C                     
  1297                           ; BSR set to: 0
  1298                           ;application.c: 75:         if(BlockModeFlag==(uint8)1){
  1299   00139C  046F               	decf	_BlockModeFlag^0,w,c
  1300   00139E  A4D8               	btfss	status,2,c
  1301   0013A0  EFD4  F009         	goto	u2951
  1302   0013A4  EFD6  F009         	goto	u2950
  1303   0013A8                     u2951:
  1304   0013A8  EFA9  F00A         	goto	l4331
  1305   0013AC                     u2950:
  1306   0013AC                     
  1307                           ; BSR set to: 0
  1308                           ;application.c: 76:                 lcd_4bit_send_command(&Lcd_Obj,0x01);
  1309   0013AC  0E39               	movlw	low _Lcd_Obj
  1310   0013AE  6E51               	movwf	lcd_4bit_send_command@_lcd^0,c
  1311   0013B0  0E00               	movlw	high _Lcd_Obj
  1312   0013B2  6E52               	movwf	(lcd_4bit_send_command@_lcd+1)^0,c
  1313   0013B4  0E01               	movlw	1
  1314   0013B6  6E53               	movwf	lcd_4bit_send_command@command^0,c
  1315   0013B8  EC04  F010         	call	_lcd_4bit_send_command	;wreg free
  1316   0013BC                     
  1317                           ;application.c: 77:                 lcd_4bit_send_string_data(&Lcd_Obj,"Login Blocked");
  1318   0013BC  0E39               	movlw	low _Lcd_Obj
  1319   0013BE  6E55               	movwf	lcd_4bit_send_string_data@_lcd^0,c
  1320   0013C0  0E00               	movlw	high _Lcd_Obj
  1321   0013C2  6E56               	movwf	(lcd_4bit_send_string_data@_lcd+1)^0,c
  1322   0013C4  0E63               	movlw	low STR_9
  1323   0013C6  6E57               	movwf	lcd_4bit_send_string_data@str^0,c
  1324   0013C8  0E10               	movlw	high STR_9
  1325   0013CA  6E58               	movwf	(lcd_4bit_send_string_data@str+1)^0,c
  1326   0013CC  EC21  F011         	call	_lcd_4bit_send_string_data	;wreg free
  1327   0013D0                     
  1328                           ;application.c: 78:                 set_cursor_4bit_mode(&Lcd_Obj,2,1);
  1329   0013D0  0E39               	movlw	low _Lcd_Obj
  1330   0013D2  6E55               	movwf	set_cursor_4bit_mode@_lcd^0,c
  1331   0013D4  0E00               	movlw	high _Lcd_Obj
  1332   0013D6  6E56               	movwf	(set_cursor_4bit_mode@_lcd+1)^0,c
  1333   0013D8  0E02               	movlw	2
  1334   0013DA  6E57               	movwf	set_cursor_4bit_mode@row^0,c
  1335   0013DC  0E01               	movlw	1
  1336   0013DE  6E58               	movwf	set_cursor_4bit_mode@column^0,c
  1337   0013E0  EC04  F00E         	call	_set_cursor_4bit_mode	;wreg free
  1338                           
  1339                           ;application.c: 79:                 lcd_4bit_send_string_data(&Lcd_Obj,"Wait 20 Seconds"
      +                          );
  1340   0013E4  0E39               	movlw	low _Lcd_Obj
  1341   0013E6  6E55               	movwf	lcd_4bit_send_string_data@_lcd^0,c
  1342   0013E8  0E00               	movlw	high _Lcd_Obj
  1343   0013EA  6E56               	movwf	(lcd_4bit_send_string_data@_lcd+1)^0,c
  1344   0013EC  0E36               	movlw	low STR_10
  1345   0013EE  6E57               	movwf	lcd_4bit_send_string_data@str^0,c
  1346   0013F0  0E10               	movlw	high STR_10
  1347   0013F2  6E58               	movwf	(lcd_4bit_send_string_data@str+1)^0,c
  1348   0013F4  EC21  F011         	call	_lcd_4bit_send_string_data	;wreg free
  1349   0013F8                     
  1350                           ;application.c: 80:                 _TimerDelay_ms((uint32)20000);
  1351   0013F8  0E4E               	movlw	78
  1352   0013FA  6E4B               	movwf	(__TimerDelay_ms@u16CopyDelay+1)^0,c
  1353   0013FC  0E20               	movlw	32
  1354   0013FE  6E4A               	movwf	__TimerDelay_ms@u16CopyDelay^0,c
  1355   001400  EC77  F011         	call	__TimerDelay_ms	;wreg free
  1356   001404                     
  1357                           ;application.c: 81:                 lcd_4bit_send_command(&Lcd_Obj,0x01);
  1358   001404  0E39               	movlw	low _Lcd_Obj
  1359   001406  6E51               	movwf	lcd_4bit_send_command@_lcd^0,c
  1360   001408  0E00               	movlw	high _Lcd_Obj
  1361   00140A  6E52               	movwf	(lcd_4bit_send_command@_lcd+1)^0,c
  1362   00140C  0E01               	movlw	1
  1363   00140E  6E53               	movwf	lcd_4bit_send_command@command^0,c
  1364   001410  EC04  F010         	call	_lcd_4bit_send_command	;wreg free
  1365   001414                     
  1366                           ;application.c: 82:                 lcd_4bit_send_string_data(&Lcd_Obj,"Set The Pass:");
  1367   001414  0E39               	movlw	low _Lcd_Obj
  1368   001416  6E55               	movwf	lcd_4bit_send_string_data@_lcd^0,c
  1369   001418  0E00               	movlw	high _Lcd_Obj
  1370   00141A  6E56               	movwf	(lcd_4bit_send_string_data@_lcd+1)^0,c
  1371   00141C  0E55               	movlw	low STR_8
  1372   00141E  6E57               	movwf	lcd_4bit_send_string_data@str^0,c
  1373   001420  0E10               	movlw	high STR_8
  1374   001422  6E58               	movwf	(lcd_4bit_send_string_data@str+1)^0,c
  1375   001424  EC21  F011         	call	_lcd_4bit_send_string_data	;wreg free
  1376   001428                     
  1377                           ;application.c: 83:                 PassTriesCount=0;
  1378   001428  0E00               	movlw	0
  1379   00142A  6E6E               	movwf	_PassTriesCount^0,c
  1380   00142C                     
  1381                           ;application.c: 84:                 BlockModeFlag=(uint8)0;
  1382   00142C  0E00               	movlw	0
  1383   00142E  6E6F               	movwf	_BlockModeFlag^0,c
  1384   001430                     
  1385                           ;application.c: 86:                 eeprom_WriteDataByte((uint16)0X0006,(uint8)0);
  1386   001430  0E00               	movlw	0
  1387   001432  6E44               	movwf	(eeprom_WriteDataByte@badd+1)^0,c
  1388   001434  0E06               	movlw	6
  1389   001436  6E43               	movwf	eeprom_WriteDataByte@badd^0,c
  1390   001438  0E00               	movlw	0
  1391   00143A  6E45               	movwf	eeprom_WriteDataByte@data^0,c
  1392   00143C  ECC8  F011         	call	_eeprom_WriteDataByte	;wreg free
  1393   001440  EFA9  F00A         	goto	l4331
  1394   001444                     l72:
  1395                           
  1396                           ; BSR set to: 0
  1397                           ;application.c: 89:             u8KeyPadPressed=0XFF;
  1398   001444  698E               	setf	main@u8KeyPadPressed& (0+255),b
  1399                           
  1400                           ;application.c: 90:             while(u8KeyPadPressed == 0XFF){
  1401   001446  EF2F  F00A         	goto	l4297
  1402   00144A                     l4295:
  1403                           
  1404                           ; BSR set to: 0
  1405                           ;application.c: 91:                 keypad_get_value(&Keypad_Obj,&u8KeyPadPressed);
  1406   00144A  0E2B               	movlw	low _Keypad_Obj
  1407   00144C  6E4D               	movwf	keypad_get_value@_keypad_obj^0,c
  1408   00144E  0E00               	movlw	high _Keypad_Obj
  1409   001450  6E4E               	movwf	(keypad_get_value@_keypad_obj+1)^0,c
  1410   001452  0E8E               	movlw	low main@u8KeyPadPressed
  1411   001454  6E4F               	movwf	keypad_get_value@value^0,c
  1412   001456  0E00               	movlw	high main@u8KeyPadPressed
  1413   001458  6E50               	movwf	(keypad_get_value@value+1)^0,c
  1414   00145A  EC80  F00D         	call	_keypad_get_value	;wreg free
  1415   00145E                     l4297:
  1416                           
  1417                           ;application.c: 90:             while(u8KeyPadPressed == 0XFF){
  1418   00145E  0100               	movlb	0	; () banked
  1419   001460  298E               	incf	main@u8KeyPadPressed& (0+255),w,b
  1420   001462  B4D8               	btfsc	status,2,c
  1421   001464  EF36  F00A         	goto	u2961
  1422   001468  EF38  F00A         	goto	u2960
  1423   00146C                     u2961:
  1424   00146C  EF25  F00A         	goto	l4295
  1425   001470                     u2960:
  1426   001470                     
  1427                           ; BSR set to: 0
  1428                           ;application.c: 93:             if((u8KeyPadPressed < '0') || (u8KeyPadPressed > '9') ){
  1429   001470  0E2F               	movlw	47
  1430   001472  658E               	cpfsgt	main@u8KeyPadPressed& (0+255),b
  1431   001474  EF3E  F00A         	goto	u2971
  1432   001478  EF40  F00A         	goto	u2970
  1433   00147C                     u2971:
  1434   00147C  EF48  F00A         	goto	l4303
  1435   001480                     u2970:
  1436   001480                     
  1437                           ; BSR set to: 0
  1438   001480  0E39               	movlw	57
  1439   001482  658E               	cpfsgt	main@u8KeyPadPressed& (0+255),b
  1440   001484  EF46  F00A         	goto	u2981
  1441   001488  EF48  F00A         	goto	u2980
  1442   00148C                     u2981:
  1443   00148C  EF77  F00A         	goto	l4317
  1444   001490                     u2980:
  1445   001490                     l4303:
  1446                           
  1447                           ; BSR set to: 0
  1448                           ;application.c: 94:                 lcd_4bit_send_command(&Lcd_Obj,0x01);
  1449   001490  0E39               	movlw	low _Lcd_Obj
  1450   001492  6E51               	movwf	lcd_4bit_send_command@_lcd^0,c
  1451   001494  0E00               	movlw	high _Lcd_Obj
  1452   001496  6E52               	movwf	(lcd_4bit_send_command@_lcd+1)^0,c
  1453   001498  0E01               	movlw	1
  1454   00149A  6E53               	movwf	lcd_4bit_send_command@command^0,c
  1455   00149C  EC04  F010         	call	_lcd_4bit_send_command	;wreg free
  1456   0014A0                     
  1457                           ;application.c: 95:                 lcd_4bit_send_string_data(&Lcd_Obj,"Wrong Input");
  1458   0014A0  0E39               	movlw	low _Lcd_Obj
  1459   0014A2  6E55               	movwf	lcd_4bit_send_string_data@_lcd^0,c
  1460   0014A4  0E00               	movlw	high _Lcd_Obj
  1461   0014A6  6E56               	movwf	(lcd_4bit_send_string_data@_lcd+1)^0,c
  1462   0014A8  0E98               	movlw	low STR_12
  1463   0014AA  6E57               	movwf	lcd_4bit_send_string_data@str^0,c
  1464   0014AC  0E10               	movlw	high STR_12
  1465   0014AE  6E58               	movwf	(lcd_4bit_send_string_data@str+1)^0,c
  1466   0014B0  EC21  F011         	call	_lcd_4bit_send_string_data	;wreg free
  1467   0014B4                     
  1468                           ;application.c: 96:                 _TimerDelay_ms(1000);
  1469   0014B4  0E03               	movlw	3
  1470   0014B6  6E4B               	movwf	(__TimerDelay_ms@u16CopyDelay+1)^0,c
  1471   0014B8  0EE8               	movlw	232
  1472   0014BA  6E4A               	movwf	__TimerDelay_ms@u16CopyDelay^0,c
  1473   0014BC  EC77  F011         	call	__TimerDelay_ms	;wreg free
  1474   0014C0                     
  1475                           ;application.c: 97:                 lcd_4bit_send_command(&Lcd_Obj,0x01);
  1476   0014C0  0E39               	movlw	low _Lcd_Obj
  1477   0014C2  6E51               	movwf	lcd_4bit_send_command@_lcd^0,c
  1478   0014C4  0E00               	movlw	high _Lcd_Obj
  1479   0014C6  6E52               	movwf	(lcd_4bit_send_command@_lcd+1)^0,c
  1480   0014C8  0E01               	movlw	1
  1481   0014CA  6E53               	movwf	lcd_4bit_send_command@command^0,c
  1482   0014CC  EC04  F010         	call	_lcd_4bit_send_command	;wreg free
  1483   0014D0                     
  1484                           ;application.c: 98:                 lcd_4bit_send_string_data(&Lcd_Obj,"Set The Pass:");
  1485   0014D0  0E39               	movlw	low _Lcd_Obj
  1486   0014D2  6E55               	movwf	lcd_4bit_send_string_data@_lcd^0,c
  1487   0014D4  0E00               	movlw	high _Lcd_Obj
  1488   0014D6  6E56               	movwf	(lcd_4bit_send_string_data@_lcd+1)^0,c
  1489   0014D8  0E55               	movlw	low STR_8
  1490   0014DA  6E57               	movwf	lcd_4bit_send_string_data@str^0,c
  1491   0014DC  0E10               	movlw	high STR_8
  1492   0014DE  6E58               	movwf	(lcd_4bit_send_string_data@str+1)^0,c
  1493   0014E0  EC21  F011         	call	_lcd_4bit_send_string_data	;wreg free
  1494   0014E4                     
  1495                           ;application.c: 99:                 PassCounter=0;
  1496   0014E4  0E00               	movlw	0
  1497   0014E6  0100               	movlb	0	; () banked
  1498   0014E8  6F8D               	movwf	main@PassCounter_237& (0+255),b
  1499                           
  1500                           ;application.c: 100:                 continue;
  1501   0014EA  EFA9  F00A         	goto	l4331
  1502   0014EE                     l4317:
  1503                           
  1504                           ; BSR set to: 0
  1505                           ;application.c: 103:                 Pass[PassCounter]=u8KeyPadPressed;
  1506   0014EE  0E84               	movlw	low main@Pass_239
  1507   0014F0  258D               	addwf	main@PassCounter_237& (0+255),w,b
  1508   0014F2  6ED9               	movwf	fsr2l,c
  1509   0014F4  6ADA               	clrf	fsr2h,c
  1510   0014F6  0E00               	movlw	high main@Pass_239
  1511   0014F8  22DA               	addwfc	fsr2h,f,c
  1512   0014FA  C08E  FFDF         	movff	main@u8KeyPadPressed,indf2
  1513   0014FE                     
  1514                           ; BSR set to: 0
  1515                           ;application.c: 104:                 lcd_4bit_send_char_data(&Lcd_Obj,u8KeyPadPressed);
  1516   0014FE  0E39               	movlw	low _Lcd_Obj
  1517   001500  6E51               	movwf	lcd_4bit_send_char_data@_lcd^0,c
  1518   001502  0E00               	movlw	high _Lcd_Obj
  1519   001504  6E52               	movwf	(lcd_4bit_send_char_data@_lcd+1)^0,c
  1520   001506  C08E  F053         	movff	main@u8KeyPadPressed,lcd_4bit_send_char_data@data
  1521   00150A  ECCB  F00F         	call	_lcd_4bit_send_char_data	;wreg free
  1522   00150E                     
  1523                           ;application.c: 105:                 _TimerDelay_ms((uint16)300);
  1524   00150E  0E01               	movlw	1
  1525   001510  6E4B               	movwf	(__TimerDelay_ms@u16CopyDelay+1)^0,c
  1526   001512  0E2C               	movlw	44
  1527   001514  6E4A               	movwf	__TimerDelay_ms@u16CopyDelay^0,c
  1528   001516  EC77  F011         	call	__TimerDelay_ms	;wreg free
  1529   00151A                     
  1530                           ;application.c: 106:                 set_cursor_4bit_mode(&Lcd_Obj,1,14+PassCounter);
  1531   00151A  0E39               	movlw	low _Lcd_Obj
  1532   00151C  6E55               	movwf	set_cursor_4bit_mode@_lcd^0,c
  1533   00151E  0E00               	movlw	high _Lcd_Obj
  1534   001520  6E56               	movwf	(set_cursor_4bit_mode@_lcd+1)^0,c
  1535   001522  0E01               	movlw	1
  1536   001524  6E57               	movwf	set_cursor_4bit_mode@row^0,c
  1537   001526  0100               	movlb	0	; () banked
  1538   001528  518D               	movf	main@PassCounter_237& (0+255),w,b
  1539   00152A  0F0E               	addlw	14
  1540   00152C  6E58               	movwf	set_cursor_4bit_mode@column^0,c
  1541   00152E  EC04  F00E         	call	_set_cursor_4bit_mode	;wreg free
  1542   001532                     
  1543                           ;application.c: 107:                 lcd_4bit_send_char_data(&Lcd_Obj,(uint8)'*');
  1544   001532  0E39               	movlw	low _Lcd_Obj
  1545   001534  6E51               	movwf	lcd_4bit_send_char_data@_lcd^0,c
  1546   001536  0E00               	movlw	high _Lcd_Obj
  1547   001538  6E52               	movwf	(lcd_4bit_send_char_data@_lcd+1)^0,c
  1548   00153A  0E2A               	movlw	42
  1549   00153C  6E53               	movwf	lcd_4bit_send_char_data@data^0,c
  1550   00153E  ECCB  F00F         	call	_lcd_4bit_send_char_data	;wreg free
  1551   001542                     
  1552                           ;application.c: 108:                 _TimerDelay_ms(100);
  1553   001542  0E00               	movlw	0
  1554   001544  6E4B               	movwf	(__TimerDelay_ms@u16CopyDelay+1)^0,c
  1555   001546  0E64               	movlw	100
  1556   001548  6E4A               	movwf	__TimerDelay_ms@u16CopyDelay^0,c
  1557   00154A  EC77  F011         	call	__TimerDelay_ms	;wreg free
  1558   00154E                     
  1559                           ;application.c: 109:                 PassCounter++;
  1560   00154E  0100               	movlb	0	; () banked
  1561   001550  2B8D               	incf	main@PassCounter_237& (0+255),f,b
  1562   001552                     l4331:
  1563                           
  1564                           ;application.c: 88:         while (PassCounter < (uint8)4){
  1565   001552  0E03               	movlw	3
  1566   001554  0100               	movlb	0	; () banked
  1567   001556  658D               	cpfsgt	main@PassCounter_237& (0+255),b
  1568   001558  EFB0  F00A         	goto	u2991
  1569   00155C  EFB2  F00A         	goto	u2990
  1570   001560                     u2991:
  1571   001560  EF22  F00A         	goto	l72
  1572   001564                     u2990:
  1573   001564                     
  1574                           ; BSR set to: 0
  1575                           ;application.c: 112:          vReadBlockOnEEPROM((uint16)0X0000,PassStored,(uint8)4);
  1576   001564  0E00               	movlw	0
  1577   001566  6E48               	movwf	(vReadBlockOnEEPROM@u16TheStartAddress+1)^0,c
  1578   001568  0E00               	movlw	0
  1579   00156A  6E47               	movwf	vReadBlockOnEEPROM@u16TheStartAddress^0,c
  1580   00156C  0E88               	movlw	low main@PassStored
  1581   00156E  6E49               	movwf	vReadBlockOnEEPROM@Pass^0,c
  1582   001570  0E00               	movlw	high main@PassStored
  1583   001572  6E4A               	movwf	(vReadBlockOnEEPROM@Pass+1)^0,c
  1584   001574  0E04               	movlw	4
  1585   001576  6E4B               	movwf	vReadBlockOnEEPROM@Size^0,c
  1586   001578  EC9D  F010         	call	_vReadBlockOnEEPROM	;wreg free
  1587   00157C                     
  1588                           ;application.c: 114:          if((uint8)1==u8ComparePass(PassStored,Pass,(uint8)4)){
  1589   00157C  0E88               	movlw	low main@PassStored
  1590   00157E  6E43               	movwf	u8ComparePass@Pass1^0,c
  1591   001580  0E00               	movlw	high main@PassStored
  1592   001582  6E44               	movwf	(u8ComparePass@Pass1+1)^0,c
  1593   001584  0E84               	movlw	low main@Pass_239
  1594   001586  6E45               	movwf	u8ComparePass@Pass2^0,c
  1595   001588  0E00               	movlw	high main@Pass_239
  1596   00158A  6E46               	movwf	(u8ComparePass@Pass2+1)^0,c
  1597   00158C  0E04               	movlw	4
  1598   00158E  6E47               	movwf	u8ComparePass@Size^0,c
  1599   001590  ECF6  F010         	call	_u8ComparePass	;wreg free
  1600   001594  06E8               	decf	wreg,f,c
  1601   001596  A4D8               	btfss	status,2,c
  1602   001598  EFD0  F00A         	goto	u3001
  1603   00159C  EFD2  F00A         	goto	u3000
  1604   0015A0                     u3001:
  1605   0015A0  EF46  F00B         	goto	l4367
  1606   0015A4                     u3000:
  1607   0015A4                     
  1608                           ;application.c: 115:                 PassTriesCount=0;
  1609   0015A4  0E00               	movlw	0
  1610   0015A6  6E6E               	movwf	_PassTriesCount^0,c
  1611   0015A8                     
  1612                           ;application.c: 116:                 lcd_4bit_send_command(&Lcd_Obj,0x01);
  1613   0015A8  0E39               	movlw	low _Lcd_Obj
  1614   0015AA  6E51               	movwf	lcd_4bit_send_command@_lcd^0,c
  1615   0015AC  0E00               	movlw	high _Lcd_Obj
  1616   0015AE  6E52               	movwf	(lcd_4bit_send_command@_lcd+1)^0,c
  1617   0015B0  0E01               	movlw	1
  1618   0015B2  6E53               	movwf	lcd_4bit_send_command@command^0,c
  1619   0015B4  EC04  F010         	call	_lcd_4bit_send_command	;wreg free
  1620   0015B8                     
  1621                           ;application.c: 117:                 lcd_4bit_send_string_data(&Lcd_Obj,"Correct Pass");
  1622   0015B8  0E39               	movlw	low _Lcd_Obj
  1623   0015BA  6E55               	movwf	lcd_4bit_send_string_data@_lcd^0,c
  1624   0015BC  0E00               	movlw	high _Lcd_Obj
  1625   0015BE  6E56               	movwf	(lcd_4bit_send_string_data@_lcd+1)^0,c
  1626   0015C0  0E7F               	movlw	low STR_14
  1627   0015C2  6E57               	movwf	lcd_4bit_send_string_data@str^0,c
  1628   0015C4  0E10               	movlw	high STR_14
  1629   0015C6  6E58               	movwf	(lcd_4bit_send_string_data@str+1)^0,c
  1630   0015C8  EC21  F011         	call	_lcd_4bit_send_string_data	;wreg free
  1631   0015CC                     
  1632                           ;application.c: 118:                 _TimerDelay_ms(1000);
  1633   0015CC  0E03               	movlw	3
  1634   0015CE  6E4B               	movwf	(__TimerDelay_ms@u16CopyDelay+1)^0,c
  1635   0015D0  0EE8               	movlw	232
  1636   0015D2  6E4A               	movwf	__TimerDelay_ms@u16CopyDelay^0,c
  1637   0015D4  EC77  F011         	call	__TimerDelay_ms	;wreg free
  1638   0015D8                     
  1639                           ;application.c: 119:                 set_cursor_4bit_mode(&Lcd_Obj,2,1);
  1640   0015D8  0E39               	movlw	low _Lcd_Obj
  1641   0015DA  6E55               	movwf	set_cursor_4bit_mode@_lcd^0,c
  1642   0015DC  0E00               	movlw	high _Lcd_Obj
  1643   0015DE  6E56               	movwf	(set_cursor_4bit_mode@_lcd+1)^0,c
  1644   0015E0  0E02               	movlw	2
  1645   0015E2  6E57               	movwf	set_cursor_4bit_mode@row^0,c
  1646   0015E4  0E01               	movlw	1
  1647   0015E6  6E58               	movwf	set_cursor_4bit_mode@column^0,c
  1648   0015E8  EC04  F00E         	call	_set_cursor_4bit_mode	;wreg free
  1649   0015EC                     
  1650                           ;application.c: 120:                 lcd_4bit_send_string_data(&Lcd_Obj,"Wait until The 
      +                          Door");
  1651   0015EC  0E39               	movlw	low _Lcd_Obj
  1652   0015EE  6E55               	movwf	lcd_4bit_send_string_data@_lcd^0,c
  1653   0015F0  0E00               	movlw	high _Lcd_Obj
  1654   0015F2  6E56               	movwf	(lcd_4bit_send_string_data@_lcd+1)^0,c
  1655   0015F4  0E11               	movlw	low STR_15
  1656   0015F6  6E57               	movwf	lcd_4bit_send_string_data@str^0,c
  1657   0015F8  0E10               	movlw	high STR_15
  1658   0015FA  6E58               	movwf	(lcd_4bit_send_string_data@str+1)^0,c
  1659   0015FC  EC21  F011         	call	_lcd_4bit_send_string_data	;wreg free
  1660   001600                     
  1661                           ;application.c: 121:                 set_cursor_4bit_mode(&Lcd_Obj,3,1);
  1662   001600  0E39               	movlw	low _Lcd_Obj
  1663   001602  6E55               	movwf	set_cursor_4bit_mode@_lcd^0,c
  1664   001604  0E00               	movlw	high _Lcd_Obj
  1665   001606  6E56               	movwf	(set_cursor_4bit_mode@_lcd+1)^0,c
  1666   001608  0E03               	movlw	3
  1667   00160A  6E57               	movwf	set_cursor_4bit_mode@row^0,c
  1668   00160C  0E01               	movlw	1
  1669   00160E  6E58               	movwf	set_cursor_4bit_mode@column^0,c
  1670   001610  EC04  F00E         	call	_set_cursor_4bit_mode	;wreg free
  1671   001614                     
  1672                           ;application.c: 122:                 lcd_4bit_send_string_data(&Lcd_Obj,"Open And Close"
      +                          );
  1673   001614  0E39               	movlw	low _Lcd_Obj
  1674   001616  6E55               	movwf	lcd_4bit_send_string_data@_lcd^0,c
  1675   001618  0E00               	movlw	high _Lcd_Obj
  1676   00161A  6E56               	movwf	(lcd_4bit_send_string_data@_lcd+1)^0,c
  1677   00161C  0E46               	movlw	low STR_16
  1678   00161E  6E57               	movwf	lcd_4bit_send_string_data@str^0,c
  1679   001620  0E10               	movlw	high STR_16
  1680   001622  6E58               	movwf	(lcd_4bit_send_string_data@str+1)^0,c
  1681   001624  EC21  F011         	call	_lcd_4bit_send_string_data	;wreg free
  1682   001628                     
  1683                           ;application.c: 123:                 dc_motor_move_right(&DC_Obj);
  1684   001628  0E3F               	movlw	low _DC_Obj
  1685   00162A  6E4D               	movwf	dc_motor_move_right@dc_motor^0,c
  1686   00162C  0E00               	movlw	high _DC_Obj
  1687   00162E  6E4E               	movwf	(dc_motor_move_right@dc_motor+1)^0,c
  1688   001630  EC2A  F012         	call	_dc_motor_move_right	;wreg free
  1689   001634                     
  1690                           ;application.c: 124:                 _TimerDelay_ms(5000);
  1691   001634  0E13               	movlw	19
  1692   001636  6E4B               	movwf	(__TimerDelay_ms@u16CopyDelay+1)^0,c
  1693   001638  0E88               	movlw	136
  1694   00163A  6E4A               	movwf	__TimerDelay_ms@u16CopyDelay^0,c
  1695   00163C  EC77  F011         	call	__TimerDelay_ms	;wreg free
  1696   001640                     
  1697                           ;application.c: 125:                 dc_motor_move_left(&DC_Obj);
  1698   001640  0E3F               	movlw	low _DC_Obj
  1699   001642  6E4D               	movwf	dc_motor_move_left@dc_motor^0,c
  1700   001644  0E00               	movlw	high _DC_Obj
  1701   001646  6E4E               	movwf	(dc_motor_move_left@dc_motor+1)^0,c
  1702   001648  EC4A  F012         	call	_dc_motor_move_left	;wreg free
  1703   00164C                     
  1704                           ;application.c: 126:                 _TimerDelay_ms(5000);
  1705   00164C  0E13               	movlw	19
  1706   00164E  6E4B               	movwf	(__TimerDelay_ms@u16CopyDelay+1)^0,c
  1707   001650  0E88               	movlw	136
  1708   001652  6E4A               	movwf	__TimerDelay_ms@u16CopyDelay^0,c
  1709   001654  EC77  F011         	call	__TimerDelay_ms	;wreg free
  1710   001658                     
  1711                           ;application.c: 127:                 dc_motor_stop(&DC_Obj);
  1712   001658  0E3F               	movlw	low _DC_Obj
  1713   00165A  6E4D               	movwf	dc_motor_stop@dc_motor^0,c
  1714   00165C  0E00               	movlw	high _DC_Obj
  1715   00165E  6E4E               	movwf	(dc_motor_stop@dc_motor+1)^0,c
  1716   001660  EC0A  F012         	call	_dc_motor_stop	;wreg free
  1717   001664                     
  1718                           ;application.c: 128:                 lcd_4bit_send_command(&Lcd_Obj,0x01);
  1719   001664  0E39               	movlw	low _Lcd_Obj
  1720   001666  6E51               	movwf	lcd_4bit_send_command@_lcd^0,c
  1721   001668  0E00               	movlw	high _Lcd_Obj
  1722   00166A  6E52               	movwf	(lcd_4bit_send_command@_lcd+1)^0,c
  1723   00166C  0E01               	movlw	1
  1724   00166E  6E53               	movwf	lcd_4bit_send_command@command^0,c
  1725   001670  EC04  F010         	call	_lcd_4bit_send_command	;wreg free
  1726   001674                     
  1727                           ;application.c: 129:                 lcd_4bit_send_string_data(&Lcd_Obj,"Set The Pass:")
      +                          ;
  1728   001674  0E39               	movlw	low _Lcd_Obj
  1729   001676  6E55               	movwf	lcd_4bit_send_string_data@_lcd^0,c
  1730   001678  0E00               	movlw	high _Lcd_Obj
  1731   00167A  6E56               	movwf	(lcd_4bit_send_string_data@_lcd+1)^0,c
  1732   00167C  0E55               	movlw	low STR_8
  1733   00167E  6E57               	movwf	lcd_4bit_send_string_data@str^0,c
  1734   001680  0E10               	movlw	high STR_8
  1735   001682  6E58               	movwf	(lcd_4bit_send_string_data@str+1)^0,c
  1736   001684  EC21  F011         	call	_lcd_4bit_send_string_data	;wreg free
  1737                           
  1738                           ;application.c: 130:                 }
  1739   001688  EFBB  F009         	goto	l4265
  1740   00168C                     l4367:
  1741   00168C  0E88               	movlw	low main@PassStored
  1742   00168E  6E43               	movwf	u8ComparePass@Pass1^0,c
  1743   001690  0E00               	movlw	high main@PassStored
  1744   001692  6E44               	movwf	(u8ComparePass@Pass1+1)^0,c
  1745   001694  0E84               	movlw	low main@Pass_239
  1746   001696  6E45               	movwf	u8ComparePass@Pass2^0,c
  1747   001698  0E00               	movlw	high main@Pass_239
  1748   00169A  6E46               	movwf	(u8ComparePass@Pass2+1)^0,c
  1749   00169C  0E04               	movlw	4
  1750   00169E  6E47               	movwf	u8ComparePass@Size^0,c
  1751   0016A0  ECF6  F010         	call	_u8ComparePass	;wreg free
  1752   0016A4  0900               	iorlw	0
  1753   0016A6  A4D8               	btfss	status,2,c
  1754   0016A8  EF58  F00B         	goto	u3011
  1755   0016AC  EF5A  F00B         	goto	u3010
  1756   0016B0                     u3011:
  1757   0016B0  EFBB  F009         	goto	l4265
  1758   0016B4                     u3010:
  1759   0016B4                     
  1760                           ;application.c: 132:                 PassTriesCount++;
  1761   0016B4  2A6E               	incf	_PassTriesCount^0,f,c
  1762   0016B6                     
  1763                           ;application.c: 133:                 lcd_4bit_send_command(&Lcd_Obj,0x01);
  1764   0016B6  0E39               	movlw	low _Lcd_Obj
  1765   0016B8  6E51               	movwf	lcd_4bit_send_command@_lcd^0,c
  1766   0016BA  0E00               	movlw	high _Lcd_Obj
  1767   0016BC  6E52               	movwf	(lcd_4bit_send_command@_lcd+1)^0,c
  1768   0016BE  0E01               	movlw	1
  1769   0016C0  6E53               	movwf	lcd_4bit_send_command@command^0,c
  1770   0016C2  EC04  F010         	call	_lcd_4bit_send_command	;wreg free
  1771   0016C6                     
  1772                           ;application.c: 134:                 lcd_4bit_send_string_data(&Lcd_Obj,"Wrong Pass");
  1773   0016C6  0E39               	movlw	low _Lcd_Obj
  1774   0016C8  6E55               	movwf	lcd_4bit_send_string_data@_lcd^0,c
  1775   0016CA  0E00               	movlw	high _Lcd_Obj
  1776   0016CC  6E56               	movwf	(lcd_4bit_send_string_data@_lcd+1)^0,c
  1777   0016CE  0EC5               	movlw	low STR_18
  1778   0016D0  6E57               	movwf	lcd_4bit_send_string_data@str^0,c
  1779   0016D2  0E10               	movlw	high STR_18
  1780   0016D4  6E58               	movwf	(lcd_4bit_send_string_data@str+1)^0,c
  1781   0016D6  EC21  F011         	call	_lcd_4bit_send_string_data	;wreg free
  1782   0016DA                     
  1783                           ;application.c: 135:                 set_cursor_4bit_mode(&Lcd_Obj,2,1);
  1784   0016DA  0E39               	movlw	low _Lcd_Obj
  1785   0016DC  6E55               	movwf	set_cursor_4bit_mode@_lcd^0,c
  1786   0016DE  0E00               	movlw	high _Lcd_Obj
  1787   0016E0  6E56               	movwf	(set_cursor_4bit_mode@_lcd+1)^0,c
  1788   0016E2  0E02               	movlw	2
  1789   0016E4  6E57               	movwf	set_cursor_4bit_mode@row^0,c
  1790   0016E6  0E01               	movlw	1
  1791   0016E8  6E58               	movwf	set_cursor_4bit_mode@column^0,c
  1792   0016EA  EC04  F00E         	call	_set_cursor_4bit_mode	;wreg free
  1793   0016EE                     
  1794                           ;application.c: 136:                 lcd_4bit_send_string_data(&Lcd_Obj,"Tries Left");
  1795   0016EE  0E39               	movlw	low _Lcd_Obj
  1796   0016F0  6E55               	movwf	lcd_4bit_send_string_data@_lcd^0,c
  1797   0016F2  0E00               	movlw	high _Lcd_Obj
  1798   0016F4  6E56               	movwf	(lcd_4bit_send_string_data@_lcd+1)^0,c
  1799   0016F6  0ED0               	movlw	low STR_19
  1800   0016F8  6E57               	movwf	lcd_4bit_send_string_data@str^0,c
  1801   0016FA  0E10               	movlw	high STR_19
  1802   0016FC  6E58               	movwf	(lcd_4bit_send_string_data@str+1)^0,c
  1803   0016FE  EC21  F011         	call	_lcd_4bit_send_string_data	;wreg free
  1804   001702                     
  1805                           ;application.c: 137:                 lcd_4bit_send_char_data(&Lcd_Obj,(uint8)3 -PassTrie
      +                          sCount+(uint8)'0');
  1806   001702  0E39               	movlw	low _Lcd_Obj
  1807   001704  6E51               	movwf	lcd_4bit_send_char_data@_lcd^0,c
  1808   001706  0E00               	movlw	high _Lcd_Obj
  1809   001708  6E52               	movwf	(lcd_4bit_send_char_data@_lcd+1)^0,c
  1810   00170A  506E               	movf	_PassTriesCount^0,w,c
  1811   00170C  0833               	sublw	51
  1812   00170E  6E53               	movwf	lcd_4bit_send_char_data@data^0,c
  1813   001710  ECCB  F00F         	call	_lcd_4bit_send_char_data	;wreg free
  1814   001714                     
  1815                           ;application.c: 138:                  _TimerDelay_ms(1000);
  1816   001714  0E03               	movlw	3
  1817   001716  6E4B               	movwf	(__TimerDelay_ms@u16CopyDelay+1)^0,c
  1818   001718  0EE8               	movlw	232
  1819   00171A  6E4A               	movwf	__TimerDelay_ms@u16CopyDelay^0,c
  1820   00171C  EC77  F011         	call	__TimerDelay_ms	;wreg free
  1821   001720                     
  1822                           ;application.c: 139:                 lcd_4bit_send_command(&Lcd_Obj,0x01);
  1823   001720  0E39               	movlw	low _Lcd_Obj
  1824   001722  6E51               	movwf	lcd_4bit_send_command@_lcd^0,c
  1825   001724  0E00               	movlw	high _Lcd_Obj
  1826   001726  6E52               	movwf	(lcd_4bit_send_command@_lcd+1)^0,c
  1827   001728  0E01               	movlw	1
  1828   00172A  6E53               	movwf	lcd_4bit_send_command@command^0,c
  1829   00172C  EC04  F010         	call	_lcd_4bit_send_command	;wreg free
  1830   001730                     
  1831                           ;application.c: 140:                 lcd_4bit_send_string_data(&Lcd_Obj,"Set The Pass:")
      +                          ;
  1832   001730  0E39               	movlw	low _Lcd_Obj
  1833   001732  6E55               	movwf	lcd_4bit_send_string_data@_lcd^0,c
  1834   001734  0E00               	movlw	high _Lcd_Obj
  1835   001736  6E56               	movwf	(lcd_4bit_send_string_data@_lcd+1)^0,c
  1836   001738  0E55               	movlw	low STR_8
  1837   00173A  6E57               	movwf	lcd_4bit_send_string_data@str^0,c
  1838   00173C  0E10               	movlw	high STR_8
  1839   00173E  6E58               	movwf	(lcd_4bit_send_string_data@str+1)^0,c
  1840   001740  EC21  F011         	call	_lcd_4bit_send_string_data	;wreg free
  1841   001744                     
  1842                           ;application.c: 141:                 if(PassTriesCount >= (uint8)3){
  1843   001744  0E02               	movlw	2
  1844   001746  646E               	cpfsgt	_PassTriesCount^0,c
  1845   001748  EFA8  F00B         	goto	u3021
  1846   00174C  EFAA  F00B         	goto	u3020
  1847   001750                     u3021:
  1848   001750  EFBB  F009         	goto	l64
  1849   001754                     u3020:
  1850   001754                     
  1851                           ;application.c: 142:                 eeprom_WriteDataByte((uint16)0X0006,(uint8)1);
  1852   001754  0E00               	movlw	0
  1853   001756  6E44               	movwf	(eeprom_WriteDataByte@badd+1)^0,c
  1854   001758  0E06               	movlw	6
  1855   00175A  6E43               	movwf	eeprom_WriteDataByte@badd^0,c
  1856   00175C  0E01               	movlw	1
  1857   00175E  6E45               	movwf	eeprom_WriteDataByte@data^0,c
  1858   001760  ECC8  F011         	call	_eeprom_WriteDataByte	;wreg free
  1859   001764                     
  1860                           ;application.c: 143:                 BlockModeFlag=(uint8)1;
  1861   001764  0E01               	movlw	1
  1862   001766  6E6F               	movwf	_BlockModeFlag^0,c
  1863   001768  EFBB  F009         	goto	l4265
  1864   00176C  EF07  F000         	goto	start
  1865   001770                     __end_of_main:
  1866                           	callstack 0
  1867                           
  1868 ;; *************** function _vWriteBlockOnEEPROM *****************
  1869 ;; Defined at:
  1870 ;;		line 160 in file "application.c"
  1871 ;; Parameters:    Size  Location     Type
  1872 ;;  u16TheStartA    2    6[COMRAM] unsigned short 
  1873 ;;  Pass            2    8[COMRAM] PTR unsigned char 
  1874 ;;		 -> main@Pass(4), 
  1875 ;;  Size            1   10[COMRAM] unsigned char 
  1876 ;; Auto vars:     Size  Location     Type
  1877 ;;  LOC_Iterator    2   14[COMRAM] int 
  1878 ;; Return value:  Size  Location     Type
  1879 ;;                  1    wreg      void 
  1880 ;; Registers used:
  1881 ;;		wreg, fsr2l, fsr2h, status,2, status,0, cstack
  1882 ;; Tracked objects:
  1883 ;;		On entry : 0/0
  1884 ;;		On exit  : 0/0
  1885 ;;		Unchanged: 0/0
  1886 ;; Data sizes:     COMRAM   BANK0   BANK1   BANK2   BANK3   BANK4   BANK5   BANK6   BANK7   BANK8   BANK9  BANK10  BANK1
      +1  BANK12  BANK13  BANK14  BANK15
  1887 ;;      Params:         5       0       0       0       0       0       0       0       0       0       0       0       
      +0       0       0       0       0
  1888 ;;      Locals:         2       0       0       0       0       0       0       0       0       0       0       0       
      +0       0       0       0       0
  1889 ;;      Temps:          3       0       0       0       0       0       0       0       0       0       0       0       
      +0       0       0       0       0
  1890 ;;      Totals:        10       0       0       0       0       0       0       0       0       0       0       0       
      +0       0       0       0       0
  1891 ;;Total ram usage:       10 bytes
  1892 ;; Hardware stack levels used: 1
  1893 ;; Hardware stack levels required when called: 4
  1894 ;; This function calls:
  1895 ;;		_eeprom_WriteDataByte
  1896 ;; This function is called by:
  1897 ;;		_main
  1898 ;; This function uses a non-reentrant model
  1899 ;;
  1900                           
  1901                           	psect	text1
  1902   0020DC                     __ptext1:
  1903                           	callstack 0
  1904   0020DC                     _vWriteBlockOnEEPROM:
  1905                           	callstack 26
  1906   0020DC                     
  1907                           ;application.c: 161:     int LOC_Iterator=0;
  1908   0020DC  0E00               	movlw	0
  1909   0020DE  6E50               	movwf	(vWriteBlockOnEEPROM@LOC_Iterator+1)^0,c
  1910   0020E0  0E00               	movlw	0
  1911   0020E2  6E4F               	movwf	vWriteBlockOnEEPROM@LOC_Iterator^0,c
  1912                           
  1913                           ;application.c: 162:     for(LOC_Iterator=0;LOC_Iterator<Size;LOC_Iterator++){
  1914   0020E4  0E00               	movlw	0
  1915   0020E6  6E50               	movwf	(vWriteBlockOnEEPROM@LOC_Iterator+1)^0,c
  1916   0020E8  0E00               	movlw	0
  1917   0020EA  6E4F               	movwf	vWriteBlockOnEEPROM@LOC_Iterator^0,c
  1918   0020EC  EF8A  F010         	goto	l4083
  1919   0020F0                     l4079:
  1920                           
  1921                           ;application.c: 163:         eeprom_WriteDataByte((u16TheStartAddress +LOC_Iterator),*(P
      +                          ass+LOC_Iterator));
  1922   0020F0  5047               	movf	vWriteBlockOnEEPROM@u16TheStartAddress^0,w,c
  1923   0020F2  244F               	addwf	vWriteBlockOnEEPROM@LOC_Iterator^0,w,c
  1924   0020F4  6E43               	movwf	eeprom_WriteDataByte@badd^0,c
  1925   0020F6  5048               	movf	(vWriteBlockOnEEPROM@u16TheStartAddress+1)^0,w,c
  1926   0020F8  2050               	addwfc	(vWriteBlockOnEEPROM@LOC_Iterator+1)^0,w,c
  1927   0020FA  6E44               	movwf	(eeprom_WriteDataByte@badd+1)^0,c
  1928   0020FC  504F               	movf	vWriteBlockOnEEPROM@LOC_Iterator^0,w,c
  1929   0020FE  2449               	addwf	vWriteBlockOnEEPROM@Pass^0,w,c
  1930   002100  6ED9               	movwf	fsr2l,c
  1931   002102  5050               	movf	(vWriteBlockOnEEPROM@LOC_Iterator+1)^0,w,c
  1932   002104  204A               	addwfc	(vWriteBlockOnEEPROM@Pass+1)^0,w,c
  1933   002106  6EDA               	movwf	fsr2h,c
  1934   002108  50DF               	movf	indf2,w,c
  1935   00210A  6E45               	movwf	eeprom_WriteDataByte@data^0,c
  1936   00210C  ECC8  F011         	call	_eeprom_WriteDataByte	;wreg free
  1937   002110                     
  1938                           ;application.c: 164:     }
  1939   002110  4A4F               	infsnz	vWriteBlockOnEEPROM@LOC_Iterator^0,f,c
  1940   002112  2A50               	incf	(vWriteBlockOnEEPROM@LOC_Iterator+1)^0,f,c
  1941   002114                     l4083:
  1942   002114  504B               	movf	vWriteBlockOnEEPROM@Size^0,w,c
  1943   002116  6E4C               	movwf	??_vWriteBlockOnEEPROM^0,c
  1944   002118  6A4D               	clrf	(??_vWriteBlockOnEEPROM+1)^0,c
  1945   00211A  504C               	movf	??_vWriteBlockOnEEPROM^0,w,c
  1946   00211C  5C4F               	subwf	vWriteBlockOnEEPROM@LOC_Iterator^0,w,c
  1947   00211E  5050               	movf	(vWriteBlockOnEEPROM@LOC_Iterator+1)^0,w,c
  1948   002120  0A80               	xorlw	128
  1949   002122  6E4E               	movwf	(??_vWriteBlockOnEEPROM+2)^0,c
  1950   002124  504D               	movf	(??_vWriteBlockOnEEPROM+1)^0,w,c
  1951   002126  0A80               	xorlw	128
  1952   002128  584E               	subwfb	(??_vWriteBlockOnEEPROM+2)^0,w,c
  1953   00212A  A0D8               	btfss	status,0,c
  1954   00212C  EF9A  F010         	goto	u2801
  1955   002130  EF9C  F010         	goto	u2800
  1956   002134                     u2801:
  1957   002134  EF78  F010         	goto	l4079
  1958   002138                     u2800:
  1959   002138  0012               	return		;funcret
  1960   00213A                     __end_of_vWriteBlockOnEEPROM:
  1961                           	callstack 0
  1962                           
  1963 ;; *************** function _eeprom_WriteDataByte *****************
  1964 ;; Defined at:
  1965 ;;		line 17 in file "MCAL_LAYER/EEPROM/hal_eeprom.c"
  1966 ;; Parameters:    Size  Location     Type
  1967 ;;  badd            2    2[COMRAM] unsigned short 
  1968 ;;  data            1    4[COMRAM] unsigned char 
  1969 ;; Auto vars:     Size  Location     Type
  1970 ;;  interrupt_st    1    5[COMRAM] unsigned char 
  1971 ;;  ret             1    0        unsigned char 
  1972 ;; Return value:  Size  Location     Type
  1973 ;;                  1    wreg      unsigned char 
  1974 ;; Registers used:
  1975 ;;		wreg, status,2, status,0
  1976 ;; Tracked objects:
  1977 ;;		On entry : 0/0
  1978 ;;		On exit  : 0/0
  1979 ;;		Unchanged: 0/0
  1980 ;; Data sizes:     COMRAM   BANK0   BANK1   BANK2   BANK3   BANK4   BANK5   BANK6   BANK7   BANK8   BANK9  BANK10  BANK1
      +1  BANK12  BANK13  BANK14  BANK15
  1981 ;;      Params:         3       0       0       0       0       0       0       0       0       0       0       0       
      +0       0       0       0       0
  1982 ;;      Locals:         1       0       0       0       0       0       0       0       0       0       0       0       
      +0       0       0       0       0
  1983 ;;      Temps:          0       0       0       0       0       0       0       0       0       0       0       0       
      +0       0       0       0       0
  1984 ;;      Totals:         4       0       0       0       0       0       0       0       0       0       0       0       
      +0       0       0       0       0
  1985 ;;Total ram usage:        4 bytes
  1986 ;; Hardware stack levels used: 1
  1987 ;; Hardware stack levels required when called: 3
  1988 ;; This function calls:
  1989 ;;		Nothing
  1990 ;; This function is called by:
  1991 ;;		_main
  1992 ;;		_vWriteBlockOnEEPROM
  1993 ;; This function uses a non-reentrant model
  1994 ;;
  1995                           
  1996                           	psect	text2
  1997   002390                     __ptext2:
  1998                           	callstack 0
  1999   002390                     _eeprom_WriteDataByte:
  2000                           	callstack 26
  2001   002390                     
  2002                           ;MCAL_LAYER/EEPROM/hal_eeprom.c: 20:       uint8 interrupt_status=INTCONbits.GIE;
  2003   002390  0E00               	movlw	0
  2004   002392  BEF2               	btfsc	242,7,c	;volatile
  2005   002394  0E01               	movlw	1
  2006   002396  6E46               	movwf	eeprom_WriteDataByte@interrupt_status^0,c
  2007   002398                     
  2008                           ;MCAL_LAYER/EEPROM/hal_eeprom.c: 22:       EEADRH=(uint8)((badd >>8)&0x03);
  2009   002398  5044               	movf	(eeprom_WriteDataByte@badd+1)^0,w,c
  2010   00239A  0B03               	andlw	3
  2011   00239C  6EAA               	movwf	170,c	;volatile
  2012   00239E                     
  2013                           ;MCAL_LAYER/EEPROM/hal_eeprom.c: 23:       EEADR= (uint8)((badd)&0xFF);
  2014   00239E  C043  FFA9         	movff	eeprom_WriteDataByte@badd,4009	;volatile
  2015   0023A2                     
  2016                           ;MCAL_LAYER/EEPROM/hal_eeprom.c: 25:       EEDATA=data;
  2017   0023A2  C045  FFA8         	movff	eeprom_WriteDataByte@data,4008	;volatile
  2018   0023A6                     
  2019                           ;MCAL_LAYER/EEPROM/hal_eeprom.c: 27:       EECON1bits.EEPGD=0;
  2020   0023A6  9EA6               	bcf	166,7,c	;volsfr
  2021   0023A8                     
  2022                           ;MCAL_LAYER/EEPROM/hal_eeprom.c: 29:       EECON1bits.CFGS=0;
  2023   0023A8  9CA6               	bcf	166,6,c	;volsfr
  2024   0023AA                     
  2025                           ;MCAL_LAYER/EEPROM/hal_eeprom.c: 31:       EECON1bits.WREN=1;
  2026   0023AA  84A6               	bsf	166,2,c	;volsfr
  2027   0023AC                     
  2028                           ;MCAL_LAYER/EEPROM/hal_eeprom.c: 33:       (INTCONbits.GIE=0);
  2029   0023AC  9EF2               	bcf	242,7,c	;volatile
  2030   0023AE                     
  2031                           ;MCAL_LAYER/EEPROM/hal_eeprom.c: 35:       EECON2=0x55;
  2032   0023AE  0E55               	movlw	85
  2033   0023B0  6EA7               	movwf	167,c	;volsfr
  2034   0023B2                     
  2035                           ;MCAL_LAYER/EEPROM/hal_eeprom.c: 36:       EECON2=0xAA;
  2036   0023B2  0EAA               	movlw	170
  2037   0023B4  6EA7               	movwf	167,c	;volsfr
  2038   0023B6                     
  2039                           ;MCAL_LAYER/EEPROM/hal_eeprom.c: 38:       EECON1bits.WR=1;
  2040   0023B6  82A6               	bsf	166,1,c	;volsfr
  2041   0023B8                     l387:
  2042   0023B8  B2A6               	btfsc	166,1,c	;volsfr
  2043   0023BA  EFE1  F011         	goto	u2481
  2044   0023BE  EFE3  F011         	goto	u2480
  2045   0023C2                     u2481:
  2046   0023C2  EFDC  F011         	goto	l387
  2047   0023C6                     u2480:
  2048   0023C6                     
  2049                           ;MCAL_LAYER/EEPROM/hal_eeprom.c: 42:       EECON1bits.WREN=0;
  2050   0023C6  94A6               	bcf	166,2,c	;volsfr
  2051                           
  2052                           ;MCAL_LAYER/EEPROM/hal_eeprom.c: 44:       INTCONbits.GIE=interrupt_status;
  2053   0023C8  B046               	btfsc	eeprom_WriteDataByte@interrupt_status^0,0,c
  2054   0023CA  D002               	bra	u2495
  2055   0023CC  9EF2               	bcf	242,7,c	;volatile
  2056   0023CE  D001               	bra	u2496
  2057   0023D0                     u2495:
  2058   0023D0  8EF2               	bsf	242,7,c	;volatile
  2059   0023D2                     u2496:
  2060   0023D2  0012               	return		;funcret
  2061   0023D4                     __end_of_eeprom_WriteDataByte:
  2062                           	callstack 0
  2063                           
  2064 ;; *************** function _vReadBlockOnEEPROM *****************
  2065 ;; Defined at:
  2066 ;;		line 167 in file "application.c"
  2067 ;; Parameters:    Size  Location     Type
  2068 ;;  u16TheStartA    2    6[COMRAM] unsigned short 
  2069 ;;  Pass            2    8[COMRAM] PTR unsigned char 
  2070 ;;		 -> main@PassStored(4), 
  2071 ;;  Size            1   10[COMRAM] unsigned char 
  2072 ;; Auto vars:     Size  Location     Type
  2073 ;;  LOC_Iterator    2   14[COMRAM] int 
  2074 ;; Return value:  Size  Location     Type
  2075 ;;                  1    wreg      void 
  2076 ;; Registers used:
  2077 ;;		wreg, fsr2l, fsr2h, status,2, status,0, cstack
  2078 ;; Tracked objects:
  2079 ;;		On entry : 0/0
  2080 ;;		On exit  : 0/0
  2081 ;;		Unchanged: 0/0
  2082 ;; Data sizes:     COMRAM   BANK0   BANK1   BANK2   BANK3   BANK4   BANK5   BANK6   BANK7   BANK8   BANK9  BANK10  BANK1
      +1  BANK12  BANK13  BANK14  BANK15
  2083 ;;      Params:         5       0       0       0       0       0       0       0       0       0       0       0       
      +0       0       0       0       0
  2084 ;;      Locals:         2       0       0       0       0       0       0       0       0       0       0       0       
      +0       0       0       0       0
  2085 ;;      Temps:          3       0       0       0       0       0       0       0       0       0       0       0       
      +0       0       0       0       0
  2086 ;;      Totals:        10       0       0       0       0       0       0       0       0       0       0       0       
      +0       0       0       0       0
  2087 ;;Total ram usage:       10 bytes
  2088 ;; Hardware stack levels used: 1
  2089 ;; Hardware stack levels required when called: 4
  2090 ;; This function calls:
  2091 ;;		_eeprom_ReadDataByte
  2092 ;; This function is called by:
  2093 ;;		_main
  2094 ;; This function uses a non-reentrant model
  2095 ;;
  2096                           
  2097                           	psect	text3
  2098   00213A                     __ptext3:
  2099                           	callstack 0
  2100   00213A                     _vReadBlockOnEEPROM:
  2101                           	callstack 26
  2102   00213A                     
  2103                           ;application.c: 168:     int LOC_Iterator=0;
  2104   00213A  0E00               	movlw	0
  2105   00213C  6E50               	movwf	(vReadBlockOnEEPROM@LOC_Iterator+1)^0,c
  2106   00213E  0E00               	movlw	0
  2107   002140  6E4F               	movwf	vReadBlockOnEEPROM@LOC_Iterator^0,c
  2108                           
  2109                           ;application.c: 169:     for(LOC_Iterator=0;LOC_Iterator<Size;LOC_Iterator++){
  2110   002142  0E00               	movlw	0
  2111   002144  6E50               	movwf	(vReadBlockOnEEPROM@LOC_Iterator+1)^0,c
  2112   002146  0E00               	movlw	0
  2113   002148  6E4F               	movwf	vReadBlockOnEEPROM@LOC_Iterator^0,c
  2114   00214A  EFB7  F010         	goto	l4091
  2115   00214E                     l4087:
  2116                           
  2117                           ;application.c: 170:         eeprom_ReadDataByte((u16TheStartAddress +LOC_Iterator),(Pas
      +                          s+LOC_Iterator));
  2118   00214E  5047               	movf	vReadBlockOnEEPROM@u16TheStartAddress^0,w,c
  2119   002150  244F               	addwf	vReadBlockOnEEPROM@LOC_Iterator^0,w,c
  2120   002152  6E43               	movwf	eeprom_ReadDataByte@badd^0,c
  2121   002154  5048               	movf	(vReadBlockOnEEPROM@u16TheStartAddress+1)^0,w,c
  2122   002156  2050               	addwfc	(vReadBlockOnEEPROM@LOC_Iterator+1)^0,w,c
  2123   002158  6E44               	movwf	(eeprom_ReadDataByte@badd+1)^0,c
  2124   00215A  504F               	movf	vReadBlockOnEEPROM@LOC_Iterator^0,w,c
  2125   00215C  2449               	addwf	vReadBlockOnEEPROM@Pass^0,w,c
  2126   00215E  6E45               	movwf	eeprom_ReadDataByte@data^0,c
  2127   002160  5050               	movf	(vReadBlockOnEEPROM@LOC_Iterator+1)^0,w,c
  2128   002162  204A               	addwfc	(vReadBlockOnEEPROM@Pass+1)^0,w,c
  2129   002164  6E46               	movwf	(eeprom_ReadDataByte@data+1)^0,c
  2130   002166  EC89  F012         	call	_eeprom_ReadDataByte	;wreg free
  2131   00216A                     
  2132                           ;application.c: 171:     }
  2133   00216A  4A4F               	infsnz	vReadBlockOnEEPROM@LOC_Iterator^0,f,c
  2134   00216C  2A50               	incf	(vReadBlockOnEEPROM@LOC_Iterator+1)^0,f,c
  2135   00216E                     l4091:
  2136   00216E  504B               	movf	vReadBlockOnEEPROM@Size^0,w,c
  2137   002170  6E4C               	movwf	??_vReadBlockOnEEPROM^0,c
  2138   002172  6A4D               	clrf	(??_vReadBlockOnEEPROM+1)^0,c
  2139   002174  504C               	movf	??_vReadBlockOnEEPROM^0,w,c
  2140   002176  5C4F               	subwf	vReadBlockOnEEPROM@LOC_Iterator^0,w,c
  2141   002178  5050               	movf	(vReadBlockOnEEPROM@LOC_Iterator+1)^0,w,c
  2142   00217A  0A80               	xorlw	128
  2143   00217C  6E4E               	movwf	(??_vReadBlockOnEEPROM+2)^0,c
  2144   00217E  504D               	movf	(??_vReadBlockOnEEPROM+1)^0,w,c
  2145   002180  0A80               	xorlw	128
  2146   002182  584E               	subwfb	(??_vReadBlockOnEEPROM+2)^0,w,c
  2147   002184  A0D8               	btfss	status,0,c
  2148   002186  EFC7  F010         	goto	u2811
  2149   00218A  EFC9  F010         	goto	u2810
  2150   00218E                     u2811:
  2151   00218E  EFA7  F010         	goto	l4087
  2152   002192                     u2810:
  2153   002192  0012               	return		;funcret
  2154   002194                     __end_of_vReadBlockOnEEPROM:
  2155                           	callstack 0
  2156                           
  2157 ;; *************** function _u8PassIsSetOrNotSet *****************
  2158 ;; Defined at:
  2159 ;;		line 154 in file "application.c"
  2160 ;; Parameters:    Size  Location     Type
  2161 ;;  Address         2    6[COMRAM] unsigned short 
  2162 ;; Auto vars:     Size  Location     Type
  2163 ;;  u8LocDataAdd    1    8[COMRAM] unsigned char 
  2164 ;; Return value:  Size  Location     Type
  2165 ;;                  1    wreg      unsigned char 
  2166 ;; Registers used:
  2167 ;;		wreg, fsr2l, fsr2h, status,2, status,0, cstack
  2168 ;; Tracked objects:
  2169 ;;		On entry : 0/0
  2170 ;;		On exit  : 0/0
  2171 ;;		Unchanged: 0/0
  2172 ;; Data sizes:     COMRAM   BANK0   BANK1   BANK2   BANK3   BANK4   BANK5   BANK6   BANK7   BANK8   BANK9  BANK10  BANK1
      +1  BANK12  BANK13  BANK14  BANK15
  2173 ;;      Params:         2       0       0       0       0       0       0       0       0       0       0       0       
      +0       0       0       0       0
  2174 ;;      Locals:         1       0       0       0       0       0       0       0       0       0       0       0       
      +0       0       0       0       0
  2175 ;;      Temps:          0       0       0       0       0       0       0       0       0       0       0       0       
      +0       0       0       0       0
  2176 ;;      Totals:         3       0       0       0       0       0       0       0       0       0       0       0       
      +0       0       0       0       0
  2177 ;;Total ram usage:        3 bytes
  2178 ;; Hardware stack levels used: 1
  2179 ;; Hardware stack levels required when called: 4
  2180 ;; This function calls:
  2181 ;;		_eeprom_ReadDataByte
  2182 ;; This function is called by:
  2183 ;;		_main
  2184 ;; This function uses a non-reentrant model
  2185 ;;
  2186                           
  2187                           	psect	text4
  2188   00260A                     __ptext4:
  2189                           	callstack 0
  2190   00260A                     _u8PassIsSetOrNotSet:
  2191                           	callstack 26
  2192   00260A                     
  2193                           ;application.c: 155:     uint8 u8LocDataAdd;;application.c: 156:     eeprom_ReadDataByte
      +                          (Address,&u8LocDataAdd);
  2194   00260A  C047  F043         	movff	u8PassIsSetOrNotSet@Address,eeprom_ReadDataByte@badd
  2195   00260E  C048  F044         	movff	u8PassIsSetOrNotSet@Address+1,eeprom_ReadDataByte@badd+1
  2196   002612  0E49               	movlw	low u8PassIsSetOrNotSet@u8LocDataAdd
  2197   002614  6E45               	movwf	eeprom_ReadDataByte@data^0,c
  2198   002616  0E00               	movlw	high u8PassIsSetOrNotSet@u8LocDataAdd
  2199   002618  6E46               	movwf	(eeprom_ReadDataByte@data+1)^0,c
  2200   00261A  EC89  F012         	call	_eeprom_ReadDataByte	;wreg free
  2201   00261E                     
  2202                           ;application.c: 157:     return u8LocDataAdd;
  2203   00261E  5049               	movf	u8PassIsSetOrNotSet@u8LocDataAdd^0,w,c
  2204   002620  0012               	return		;funcret
  2205   002622                     __end_of_u8PassIsSetOrNotSet:
  2206                           	callstack 0
  2207                           
  2208 ;; *************** function _eeprom_ReadDataByte *****************
  2209 ;; Defined at:
  2210 ;;		line 56 in file "MCAL_LAYER/EEPROM/hal_eeprom.c"
  2211 ;; Parameters:    Size  Location     Type
  2212 ;;  badd            2    2[COMRAM] unsigned short 
  2213 ;;  data            2    4[COMRAM] PTR unsigned char 
  2214 ;;		 -> u8PassIsSetOrNotSet@u8LocDataAdd(1), main@PassStored(4), 
  2215 ;; Auto vars:     Size  Location     Type
  2216 ;;  ret             1    0        unsigned char 
  2217 ;; Return value:  Size  Location     Type
  2218 ;;                  1    wreg      unsigned char 
  2219 ;; Registers used:
  2220 ;;		wreg, fsr2l, fsr2h, status,2, status,0
  2221 ;; Tracked objects:
  2222 ;;		On entry : 0/0
  2223 ;;		On exit  : 0/0
  2224 ;;		Unchanged: 0/0
  2225 ;; Data sizes:     COMRAM   BANK0   BANK1   BANK2   BANK3   BANK4   BANK5   BANK6   BANK7   BANK8   BANK9  BANK10  BANK1
      +1  BANK12  BANK13  BANK14  BANK15
  2226 ;;      Params:         4       0       0       0       0       0       0       0       0       0       0       0       
      +0       0       0       0       0
  2227 ;;      Locals:         0       0       0       0       0       0       0       0       0       0       0       0       
      +0       0       0       0       0
  2228 ;;      Temps:          0       0       0       0       0       0       0       0       0       0       0       0       
      +0       0       0       0       0
  2229 ;;      Totals:         4       0       0       0       0       0       0       0       0       0       0       0       
      +0       0       0       0       0
  2230 ;;Total ram usage:        4 bytes
  2231 ;; Hardware stack levels used: 1
  2232 ;; Hardware stack levels required when called: 3
  2233 ;; This function calls:
  2234 ;;		Nothing
  2235 ;; This function is called by:
  2236 ;;		_u8PassIsSetOrNotSet
  2237 ;;		_vReadBlockOnEEPROM
  2238 ;; This function uses a non-reentrant model
  2239 ;;
  2240                           
  2241                           	psect	text5
  2242   002512                     __ptext5:
  2243                           	callstack 0
  2244   002512                     _eeprom_ReadDataByte:
  2245                           	callstack 26
  2246   002512                     
  2247                           ;MCAL_LAYER/EEPROM/hal_eeprom.c: 58:         if (((void*)0)==data){
  2248   002512  5045               	movf	eeprom_ReadDataByte@data^0,w,c
  2249   002514  1046               	iorwf	(eeprom_ReadDataByte@data+1)^0,w,c
  2250   002516  A4D8               	btfss	status,2,c
  2251   002518  EF90  F012         	goto	u2501
  2252   00251C  EF92  F012         	goto	u2500
  2253   002520                     u2501:
  2254   002520  EF94  F012         	goto	l3759
  2255   002524                     u2500:
  2256   002524                     
  2257                           ;MCAL_LAYER/EEPROM/hal_eeprom.c: 60:         }
  2258   002524  EFA4  F012         	goto	l395
  2259   002528                     l3759:
  2260                           
  2261                           ;MCAL_LAYER/EEPROM/hal_eeprom.c: 63:       EEADRH=(uint8)((badd >>8)&0x03);
  2262   002528  5044               	movf	(eeprom_ReadDataByte@badd+1)^0,w,c
  2263   00252A  0B03               	andlw	3
  2264   00252C  6EAA               	movwf	170,c	;volatile
  2265   00252E                     
  2266                           ;MCAL_LAYER/EEPROM/hal_eeprom.c: 64:       EEADR= (uint8)((badd)&0xFF);
  2267   00252E  C043  FFA9         	movff	eeprom_ReadDataByte@badd,4009	;volatile
  2268   002532                     
  2269                           ;MCAL_LAYER/EEPROM/hal_eeprom.c: 66:       EECON1bits.EEPGD=0;
  2270   002532  9EA6               	bcf	166,7,c	;volsfr
  2271   002534                     
  2272                           ;MCAL_LAYER/EEPROM/hal_eeprom.c: 68:       EECON1bits.CFGS=0;
  2273   002534  9CA6               	bcf	166,6,c	;volsfr
  2274   002536                     
  2275                           ;MCAL_LAYER/EEPROM/hal_eeprom.c: 70:       EECON1bits.RD=1;
  2276   002536  80A6               	bsf	166,0,c	;volsfr
  2277   002538                     
  2278                           ;MCAL_LAYER/EEPROM/hal_eeprom.c: 71:       __nop();
  2279   002538  F000               	nop	
  2280   00253A                     
  2281                           ;MCAL_LAYER/EEPROM/hal_eeprom.c: 72:       __nop();
  2282   00253A  F000               	nop	
  2283   00253C                     
  2284                           ;MCAL_LAYER/EEPROM/hal_eeprom.c: 73:       *data=EEDATA;
  2285   00253C  C045  FFD9         	movff	eeprom_ReadDataByte@data,fsr2l
  2286   002540  C046  FFDA         	movff	eeprom_ReadDataByte@data+1,fsr2h
  2287   002544  CFA8 FFDF          	movff	4008,indf2	;volatile
  2288   002548                     l395:
  2289   002548  0012               	return		;funcret
  2290   00254A                     __end_of_eeprom_ReadDataByte:
  2291                           	callstack 0
  2292                           
  2293 ;; *************** function _u8ComparePass *****************
  2294 ;; Defined at:
  2295 ;;		line 174 in file "application.c"
  2296 ;; Parameters:    Size  Location     Type
  2297 ;;  Pass1           2    2[COMRAM] PTR const unsigned char 
  2298 ;;		 -> main@PassStored(4), 
  2299 ;;  Pass2           2    4[COMRAM] PTR const unsigned char 
  2300 ;;		 -> main@Pass_239(4), 
  2301 ;;  Size            1    6[COMRAM] unsigned char 
  2302 ;; Auto vars:     Size  Location     Type
  2303 ;;  PassCounter     1   10[COMRAM] unsigned char 
  2304 ;;  PassFlag        1    9[COMRAM] unsigned char 
  2305 ;; Return value:  Size  Location     Type
  2306 ;;                  1    wreg      unsigned char 
  2307 ;; Registers used:
  2308 ;;		wreg, fsr1l, fsr1h, fsr2l, fsr2h, status,2, status,0
  2309 ;; Tracked objects:
  2310 ;;		On entry : 0/0
  2311 ;;		On exit  : 0/0
  2312 ;;		Unchanged: 0/0
  2313 ;; Data sizes:     COMRAM   BANK0   BANK1   BANK2   BANK3   BANK4   BANK5   BANK6   BANK7   BANK8   BANK9  BANK10  BANK1
      +1  BANK12  BANK13  BANK14  BANK15
  2314 ;;      Params:         5       0       0       0       0       0       0       0       0       0       0       0       
      +0       0       0       0       0
  2315 ;;      Locals:         2       0       0       0       0       0       0       0       0       0       0       0       
      +0       0       0       0       0
  2316 ;;      Temps:          2       0       0       0       0       0       0       0       0       0       0       0       
      +0       0       0       0       0
  2317 ;;      Totals:         9       0       0       0       0       0       0       0       0       0       0       0       
      +0       0       0       0       0
  2318 ;;Total ram usage:        9 bytes
  2319 ;; Hardware stack levels used: 1
  2320 ;; Hardware stack levels required when called: 3
  2321 ;; This function calls:
  2322 ;;		Nothing
  2323 ;; This function is called by:
  2324 ;;		_main
  2325 ;; This function uses a non-reentrant model
  2326 ;;
  2327                           
  2328                           	psect	text6
  2329   0021EC                     __ptext6:
  2330                           	callstack 0
  2331   0021EC                     _u8ComparePass:
  2332                           	callstack 27
  2333   0021EC                     
  2334                           ;application.c: 175:     uint8 PassCounter=0;
  2335   0021EC  0E00               	movlw	0
  2336   0021EE  6E4B               	movwf	u8ComparePass@PassCounter^0,c
  2337                           
  2338                           ;application.c: 176:     uint8 PassFlag=(uint8)1;
  2339   0021F0  0E01               	movlw	1
  2340   0021F2  6E4A               	movwf	u8ComparePass@PassFlag^0,c
  2341                           
  2342                           ;application.c: 177:     while(PassCounter < Size ){
  2343   0021F4  EF16  F011         	goto	l4101
  2344   0021F8                     l4095:
  2345                           
  2346                           ;application.c: 178:         if(*(Pass1+PassCounter) != *(Pass2+PassCounter)){
  2347   0021F8  504B               	movf	u8ComparePass@PassCounter^0,w,c
  2348   0021FA  2445               	addwf	u8ComparePass@Pass2^0,w,c
  2349   0021FC  6ED9               	movwf	fsr2l,c
  2350   0021FE  0E00               	movlw	0
  2351   002200  2046               	addwfc	(u8ComparePass@Pass2+1)^0,w,c
  2352   002202  6EDA               	movwf	fsr2h,c
  2353   002204  504B               	movf	u8ComparePass@PassCounter^0,w,c
  2354   002206  2443               	addwf	u8ComparePass@Pass1^0,w,c
  2355   002208  6EE1               	movwf	fsr1l,c
  2356   00220A  0E00               	movlw	0
  2357   00220C  2044               	addwfc	(u8ComparePass@Pass1+1)^0,w,c
  2358   00220E  6EE2               	movwf	fsr1h,c
  2359   002210  50DE               	movf	postinc2,w,c
  2360   002212  18E6               	xorwf	postinc1,w,c
  2361   002214  B4D8               	btfsc	status,2,c
  2362   002216  EF0F  F011         	goto	u2821
  2363   00221A  EF11  F011         	goto	u2820
  2364   00221E                     u2821:
  2365   00221E  EF15  F011         	goto	l4099
  2366   002222                     u2820:
  2367   002222                     
  2368                           ;application.c: 179:             PassFlag=(uint8)0;
  2369   002222  0E00               	movlw	0
  2370   002224  6E4A               	movwf	u8ComparePass@PassFlag^0,c
  2371                           
  2372                           ;application.c: 180:             break;
  2373   002226  EF1F  F011         	goto	l4103
  2374   00222A                     l4099:
  2375                           
  2376                           ;application.c: 182:         PassCounter++;
  2377   00222A  2A4B               	incf	u8ComparePass@PassCounter^0,f,c
  2378   00222C                     l4101:
  2379                           
  2380                           ;application.c: 177:     while(PassCounter < Size ){
  2381   00222C  5047               	movf	u8ComparePass@Size^0,w,c
  2382   00222E  5C4B               	subwf	u8ComparePass@PassCounter^0,w,c
  2383   002230  A0D8               	btfss	status,0,c
  2384   002232  EF1D  F011         	goto	u2831
  2385   002236  EF1F  F011         	goto	u2830
  2386   00223A                     u2831:
  2387   00223A  EFFC  F010         	goto	l4095
  2388   00223E                     u2830:
  2389   00223E                     l4103:
  2390                           
  2391                           ;application.c: 184:     return PassFlag;
  2392   00223E  504A               	movf	u8ComparePass@PassFlag^0,w,c
  2393   002240  0012               	return		;funcret
  2394   002242                     __end_of_u8ComparePass:
  2395                           	callstack 0
  2396                           
  2397 ;; *************** function _set_cursor_4bit_mode *****************
  2398 ;; Defined at:
  2399 ;;		line 426 in file "ECUAL_LAYER/char_lcd/ecu_char_lcd.c"
  2400 ;; Parameters:    Size  Location     Type
  2401 ;;  _lcd            2   20[COMRAM] PTR const struct .
  2402 ;;		 -> Lcd_Obj(6), 
  2403 ;;  row             1   22[COMRAM] unsigned char 
  2404 ;;  column          1   23[COMRAM] unsigned char 
  2405 ;; Auto vars:     Size  Location     Type
  2406 ;;  ret             1   26[COMRAM] unsigned char 
  2407 ;; Return value:  Size  Location     Type
  2408 ;;                  1    wreg      unsigned char 
  2409 ;; Registers used:
  2410 ;;		wreg, fsr2l, fsr2h, status,2, status,0, prodl, prodh, cstack
  2411 ;; Tracked objects:
  2412 ;;		On entry : 0/0
  2413 ;;		On exit  : 0/0
  2414 ;;		Unchanged: 0/0
  2415 ;; Data sizes:     COMRAM   BANK0   BANK1   BANK2   BANK3   BANK4   BANK5   BANK6   BANK7   BANK8   BANK9  BANK10  BANK1
      +1  BANK12  BANK13  BANK14  BANK15
  2416 ;;      Params:         4       0       0       0       0       0       0       0       0       0       0       0       
      +0       0       0       0       0
  2417 ;;      Locals:         1       0       0       0       0       0       0       0       0       0       0       0       
      +0       0       0       0       0
  2418 ;;      Temps:          2       0       0       0       0       0       0       0       0       0       0       0       
      +0       0       0       0       0
  2419 ;;      Totals:         7       0       0       0       0       0       0       0       0       0       0       0       
      +0       0       0       0       0
  2420 ;;Total ram usage:        7 bytes
  2421 ;; Hardware stack levels used: 1
  2422 ;; Hardware stack levels required when called: 6
  2423 ;; This function calls:
  2424 ;;		_lcd_4bit_send_command
  2425 ;; This function is called by:
  2426 ;;		_main
  2427 ;;		_lcd_4bit_send_char_data_pos
  2428 ;;		_lcd_4bit_send_string_data_pos
  2429 ;; This function uses a non-reentrant model
  2430 ;;
  2431                           
  2432                           	psect	text7
  2433   001C08                     __ptext7:
  2434                           	callstack 0
  2435   001C08                     _set_cursor_4bit_mode:
  2436                           	callstack 24
  2437   001C08                     
  2438                           ;ECUAL_LAYER/char_lcd/ecu_char_lcd.c: 427:     Std_ReturnType ret=(Std_ReturnType)0x01;
  2439   001C08  0E01               	movlw	1
  2440   001C0A  6E5B               	movwf	set_cursor_4bit_mode@ret^0,c
  2441   001C0C                     
  2442                           ;ECUAL_LAYER/char_lcd/ecu_char_lcd.c: 428:     column--;
  2443   001C0C  0658               	decf	set_cursor_4bit_mode@column^0,f,c
  2444   001C0E                     
  2445                           ;ECUAL_LAYER/char_lcd/ecu_char_lcd.c: 429:         if (((void*)0)==_lcd){
  2446   001C0E  5055               	movf	set_cursor_4bit_mode@_lcd^0,w,c
  2447   001C10  1056               	iorwf	(set_cursor_4bit_mode@_lcd+1)^0,w,c
  2448   001C12  A4D8               	btfss	status,2,c
  2449   001C14  EF0E  F00E         	goto	u2711
  2450   001C18  EF10  F00E         	goto	u2710
  2451   001C1C                     u2711:
  2452   001C1C  EF44  F00E         	goto	l4003
  2453   001C20                     u2710:
  2454   001C20                     
  2455                           ;ECUAL_LAYER/char_lcd/ecu_char_lcd.c: 430:             ret=(Std_ReturnType)0x00;
  2456   001C20  0E00               	movlw	0
  2457   001C22  6E5B               	movwf	set_cursor_4bit_mode@ret^0,c
  2458                           
  2459                           ;ECUAL_LAYER/char_lcd/ecu_char_lcd.c: 431:         }
  2460   001C24  EF61  F00E         	goto	l4005
  2461   001C28                     l3995:
  2462   001C28  C055  F051         	movff	set_cursor_4bit_mode@_lcd,lcd_4bit_send_command@_lcd
  2463   001C2C  C056  F052         	movff	set_cursor_4bit_mode@_lcd+1,lcd_4bit_send_command@_lcd+1
  2464   001C30  5058               	movf	set_cursor_4bit_mode@column^0,w,c
  2465   001C32  0F80               	addlw	128
  2466   001C34  6E53               	movwf	lcd_4bit_send_command@command^0,c
  2467   001C36  EC04  F010         	call	_lcd_4bit_send_command	;wreg free
  2468   001C3A  6E5B               	movwf	set_cursor_4bit_mode@ret^0,c
  2469   001C3C  EF61  F00E         	goto	l4005
  2470   001C40                     l3997:
  2471   001C40  C055  F051         	movff	set_cursor_4bit_mode@_lcd,lcd_4bit_send_command@_lcd
  2472   001C44  C056  F052         	movff	set_cursor_4bit_mode@_lcd+1,lcd_4bit_send_command@_lcd+1
  2473   001C48  5058               	movf	set_cursor_4bit_mode@column^0,w,c
  2474   001C4A  0FC0               	addlw	192
  2475   001C4C  6E53               	movwf	lcd_4bit_send_command@command^0,c
  2476   001C4E  EC04  F010         	call	_lcd_4bit_send_command	;wreg free
  2477   001C52  6E5B               	movwf	set_cursor_4bit_mode@ret^0,c
  2478   001C54  EF61  F00E         	goto	l4005
  2479   001C58                     l3999:
  2480   001C58  C055  F051         	movff	set_cursor_4bit_mode@_lcd,lcd_4bit_send_command@_lcd
  2481   001C5C  C056  F052         	movff	set_cursor_4bit_mode@_lcd+1,lcd_4bit_send_command@_lcd+1
  2482   001C60  5058               	movf	set_cursor_4bit_mode@column^0,w,c
  2483   001C62  0F94               	addlw	148
  2484   001C64  6E53               	movwf	lcd_4bit_send_command@command^0,c
  2485   001C66  EC04  F010         	call	_lcd_4bit_send_command	;wreg free
  2486   001C6A  6E5B               	movwf	set_cursor_4bit_mode@ret^0,c
  2487   001C6C  EF61  F00E         	goto	l4005
  2488   001C70                     l4001:
  2489   001C70  C055  F051         	movff	set_cursor_4bit_mode@_lcd,lcd_4bit_send_command@_lcd
  2490   001C74  C056  F052         	movff	set_cursor_4bit_mode@_lcd+1,lcd_4bit_send_command@_lcd+1
  2491   001C78  5058               	movf	set_cursor_4bit_mode@column^0,w,c
  2492   001C7A  0FD4               	addlw	212
  2493   001C7C  6E53               	movwf	lcd_4bit_send_command@command^0,c
  2494   001C7E  EC04  F010         	call	_lcd_4bit_send_command	;wreg free
  2495   001C82  6E5B               	movwf	set_cursor_4bit_mode@ret^0,c
  2496   001C84  EF61  F00E         	goto	l4005
  2497   001C88                     l4003:
  2498   001C88  5057               	movf	set_cursor_4bit_mode@row^0,w,c
  2499   001C8A  6E59               	movwf	??_set_cursor_4bit_mode^0,c
  2500   001C8C  6A5A               	clrf	(??_set_cursor_4bit_mode+1)^0,c
  2501                           
  2502                           ; Switch on 2 bytes has been partitioned into a top level switch of size 1, and 1 sub-sw
      +                          itches
  2503                           ; Switch size 1, requested type "simple"
  2504                           ; Number of cases is 1, Range of values is 0 to 0
  2505                           ; switch strategies available:
  2506                           ; Name         Instructions Cycles
  2507                           ; simple_byte            4     3 (average)
  2508                           ;	Chosen strategy is simple_byte
  2509   001C8E  505A               	movf	(??_set_cursor_4bit_mode+1)^0,w,c
  2510   001C90  0A00               	xorlw	0	; case 0
  2511   001C92  B4D8               	btfsc	status,2,c
  2512   001C94  EF4E  F00E         	goto	l4623
  2513   001C98  EF61  F00E         	goto	l4005
  2514   001C9C                     l4623:
  2515                           
  2516                           ; Switch size 1, requested type "simple"
  2517                           ; Number of cases is 4, Range of values is 1 to 4
  2518                           ; switch strategies available:
  2519                           ; Name         Instructions Cycles
  2520                           ; simple_byte           13     7 (average)
  2521                           ;	Chosen strategy is simple_byte
  2522   001C9C  5059               	movf	??_set_cursor_4bit_mode^0,w,c
  2523   001C9E  0A01               	xorlw	1	; case 1
  2524   001CA0  B4D8               	btfsc	status,2,c
  2525   001CA2  EF14  F00E         	goto	l3995
  2526   001CA6  0A03               	xorlw	3	; case 2
  2527   001CA8  B4D8               	btfsc	status,2,c
  2528   001CAA  EF20  F00E         	goto	l3997
  2529   001CAE  0A01               	xorlw	1	; case 3
  2530   001CB0  B4D8               	btfsc	status,2,c
  2531   001CB2  EF2C  F00E         	goto	l3999
  2532   001CB6  0A07               	xorlw	7	; case 4
  2533   001CB8  B4D8               	btfsc	status,2,c
  2534   001CBA  EF38  F00E         	goto	l4001
  2535   001CBE  EF61  F00E         	goto	l4005
  2536   001CC2                     l4005:
  2537                           
  2538                           ;ECUAL_LAYER/char_lcd/ecu_char_lcd.c: 442:         return ret;
  2539   001CC2  505B               	movf	set_cursor_4bit_mode@ret^0,w,c
  2540   001CC4  0012               	return		;funcret
  2541   001CC6                     __end_of_set_cursor_4bit_mode:
  2542                           	callstack 0
  2543                           
  2544 ;; *************** function _lcd_4bit_send_string_data *****************
  2545 ;; Defined at:
  2546 ;;		line 147 in file "ECUAL_LAYER/char_lcd/ecu_char_lcd.c"
  2547 ;; Parameters:    Size  Location     Type
  2548 ;;  _lcd            2   20[COMRAM] PTR const struct .
  2549 ;;		 -> Lcd_Obj(6), 
  2550 ;;  str             2   22[COMRAM] PTR unsigned char 
  2551 ;;		 -> STR_20(14), STR_19(11), STR_18(11), STR_17(14), 
  2552 ;;		 -> STR_16(15), STR_15(20), STR_14(13), STR_13(14), 
  2553 ;;		 -> STR_12(12), STR_11(14), STR_10(16), STR_9(14), 
  2554 ;;		 -> STR_8(14), STR_7(11), STR_6(11), STR_5(10), 
  2555 ;;		 -> STR_4(11), STR_3(14), STR_2(12), STR_1(17), 
  2556 ;; Auto vars:     Size  Location     Type
  2557 ;;  ret             1    0        unsigned char 
  2558 ;; Return value:  Size  Location     Type
  2559 ;;                  1    wreg      unsigned char 
  2560 ;; Registers used:
  2561 ;;		wreg, fsr2l, fsr2h, status,2, status,0, tblptrl, tblptrh, tblptru, prodl, prodh, cstack
  2562 ;; Tracked objects:
  2563 ;;		On entry : 0/0
  2564 ;;		On exit  : 0/0
  2565 ;;		Unchanged: 0/0
  2566 ;; Data sizes:     COMRAM   BANK0   BANK1   BANK2   BANK3   BANK4   BANK5   BANK6   BANK7   BANK8   BANK9  BANK10  BANK1
      +1  BANK12  BANK13  BANK14  BANK15
  2567 ;;      Params:         4       0       0       0       0       0       0       0       0       0       0       0       
      +0       0       0       0       0
  2568 ;;      Locals:         0       0       0       0       0       0       0       0       0       0       0       0       
      +0       0       0       0       0
  2569 ;;      Temps:          0       0       0       0       0       0       0       0       0       0       0       0       
      +0       0       0       0       0
  2570 ;;      Totals:         4       0       0       0       0       0       0       0       0       0       0       0       
      +0       0       0       0       0
  2571 ;;Total ram usage:        4 bytes
  2572 ;; Hardware stack levels used: 1
  2573 ;; Hardware stack levels required when called: 6
  2574 ;; This function calls:
  2575 ;;		_lcd_4bit_send_char_data
  2576 ;; This function is called by:
  2577 ;;		_main
  2578 ;; This function uses a non-reentrant model
  2579 ;;
  2580                           
  2581                           	psect	text8
  2582   002242                     __ptext8:
  2583                           	callstack 0
  2584   002242                     _lcd_4bit_send_string_data:
  2585                           	callstack 24
  2586   002242                     
  2587                           ;ECUAL_LAYER/char_lcd/ecu_char_lcd.c: 149:         if (((void*)0)==_lcd){
  2588   002242  5055               	movf	lcd_4bit_send_string_data@_lcd^0,w,c
  2589   002244  1056               	iorwf	(lcd_4bit_send_string_data@_lcd+1)^0,w,c
  2590   002246  A4D8               	btfss	status,2,c
  2591   002248  EF28  F011         	goto	u2691
  2592   00224C  EF2A  F011         	goto	u2690
  2593   002250                     u2691:
  2594   002250  EF3C  F011         	goto	l3985
  2595   002254                     u2690:
  2596   002254                     
  2597                           ;ECUAL_LAYER/char_lcd/ecu_char_lcd.c: 151:         }
  2598   002254  EF4B  F011         	goto	l163
  2599   002258                     l3981:
  2600   002258  C055  F051         	movff	lcd_4bit_send_string_data@_lcd,lcd_4bit_send_char_data@_lcd
  2601   00225C  C056  F052         	movff	lcd_4bit_send_string_data@_lcd+1,lcd_4bit_send_char_data@_lcd+1
  2602   002260  C057  FFF6         	movff	lcd_4bit_send_string_data@str,tblptrl
  2603   002264  C058  FFF7         	movff	lcd_4bit_send_string_data@str+1,tblptrh
  2604   002268                     	if	1	;Program memory is < 0x10000, tblptru is always zero
  2605   002268  6AF8               	clrf	tblptru,c
  2606   00226A                     	endif
  2607   00226A                     	if	0	;tblptru may be non-zero
  2608   00226A                     	endif
  2609   00226A  0008               	tblrd		*
  2610   00226C  CFF5 F053          	movff	tablat,lcd_4bit_send_char_data@data
  2611   002270  ECCB  F00F         	call	_lcd_4bit_send_char_data	;wreg free
  2612   002274  4A57               	infsnz	lcd_4bit_send_string_data@str^0,f,c
  2613   002276  2A58               	incf	(lcd_4bit_send_string_data@str+1)^0,f,c
  2614   002278                     l3985:
  2615                           
  2616                           ;ECUAL_LAYER/char_lcd/ecu_char_lcd.c: 153:             while(*str){
  2617   002278  C057  FFF6         	movff	lcd_4bit_send_string_data@str,tblptrl
  2618   00227C  C058  FFF7         	movff	lcd_4bit_send_string_data@str+1,tblptrh
  2619   002280                     	if	1	;Program memory is < 0x10000, tblptru is always zero
  2620   002280  6AF8               	clrf	tblptru,c
  2621   002282                     	endif
  2622   002282                     	if	0	;tblptru may be non-zero
  2623   002282                     	endif
  2624   002282  0008               	tblrd		*
  2625   002284  50F5               	movf	tablat,w,c
  2626   002286  0900               	iorlw	0
  2627   002288  A4D8               	btfss	status,2,c
  2628   00228A  EF49  F011         	goto	u2701
  2629   00228E  EF4B  F011         	goto	u2700
  2630   002292                     u2701:
  2631   002292  EF2C  F011         	goto	l3981
  2632   002296                     u2700:
  2633   002296                     l163:
  2634   002296  0012               	return		;funcret
  2635   002298                     __end_of_lcd_4bit_send_string_data:
  2636                           	callstack 0
  2637                           
  2638 ;; *************** function _lcd_4bit_send_char_data *****************
  2639 ;; Defined at:
  2640 ;;		line 94 in file "ECUAL_LAYER/char_lcd/ecu_char_lcd.c"
  2641 ;; Parameters:    Size  Location     Type
  2642 ;;  _lcd            2   16[COMRAM] PTR const struct .
  2643 ;;		 -> Lcd_Obj(6), 
  2644 ;;  data            1   18[COMRAM] unsigned char 
  2645 ;; Auto vars:     Size  Location     Type
  2646 ;;  ret             1   19[COMRAM] unsigned char 
  2647 ;; Return value:  Size  Location     Type
  2648 ;;                  1    wreg      unsigned char 
  2649 ;; Registers used:
  2650 ;;		wreg, fsr2l, fsr2h, status,2, status,0, prodl, prodh, cstack
  2651 ;; Tracked objects:
  2652 ;;		On entry : 0/0
  2653 ;;		On exit  : 0/0
  2654 ;;		Unchanged: 0/0
  2655 ;; Data sizes:     COMRAM   BANK0   BANK1   BANK2   BANK3   BANK4   BANK5   BANK6   BANK7   BANK8   BANK9  BANK10  BANK1
      +1  BANK12  BANK13  BANK14  BANK15
  2656 ;;      Params:         3       0       0       0       0       0       0       0       0       0       0       0       
      +0       0       0       0       0
  2657 ;;      Locals:         1       0       0       0       0       0       0       0       0       0       0       0       
      +0       0       0       0       0
  2658 ;;      Temps:          0       0       0       0       0       0       0       0       0       0       0       0       
      +0       0       0       0       0
  2659 ;;      Totals:         4       0       0       0       0       0       0       0       0       0       0       0       
      +0       0       0       0       0
  2660 ;;Total ram usage:        4 bytes
  2661 ;; Hardware stack levels used: 1
  2662 ;; Hardware stack levels required when called: 5
  2663 ;; This function calls:
  2664 ;;		_gpio_Pin_Write_Logic
  2665 ;;		_send_4bit_mode_enable
  2666 ;;		_send_data_4bit_mode
  2667 ;; This function is called by:
  2668 ;;		_main
  2669 ;;		_lcd_4bit_send_string_data
  2670 ;;		_lcd_4bit_send_char_data_pos
  2671 ;;		_lcd_4bit_send_string_data_pos
  2672 ;;		_lcd_4bit_send_custome_char
  2673 ;; This function uses a non-reentrant model
  2674 ;;
  2675                           
  2676                           	psect	text9
  2677   001F96                     __ptext9:
  2678                           	callstack 0
  2679   001F96                     _lcd_4bit_send_char_data:
  2680                           	callstack 24
  2681   001F96                     
  2682                           ;ECUAL_LAYER/char_lcd/ecu_char_lcd.c: 96:         if (((void*)0)==_lcd){
  2683   001F96  5051               	movf	lcd_4bit_send_char_data@_lcd^0,w,c
  2684   001F98  1052               	iorwf	(lcd_4bit_send_char_data@_lcd+1)^0,w,c
  2685   001F9A  A4D8               	btfss	status,2,c
  2686   001F9C  EFD2  F00F         	goto	u2471
  2687   001FA0  EFD4  F00F         	goto	u2470
  2688   001FA4                     u2471:
  2689   001FA4  EFD8  F00F         	goto	l3723
  2690   001FA8                     u2470:
  2691   001FA8                     
  2692                           ;ECUAL_LAYER/char_lcd/ecu_char_lcd.c: 97:             ret=(Std_ReturnType)0x00;
  2693   001FA8  0E00               	movlw	0
  2694   001FAA  6E54               	movwf	lcd_4bit_send_char_data@ret^0,c
  2695                           
  2696                           ;ECUAL_LAYER/char_lcd/ecu_char_lcd.c: 98:         }
  2697   001FAC  EF02  F010         	goto	l3725
  2698   001FB0                     l3723:
  2699                           
  2700                           ;ECUAL_LAYER/char_lcd/ecu_char_lcd.c: 102:            ret=gpio_Pin_Write_Logic(&(_lcd->l
      +                          cd_rs),GPIO_HIGH);
  2701   001FB0  C051  F043         	movff	lcd_4bit_send_char_data@_lcd,gpio_Pin_Write_Logic@pin_config
  2702   001FB4  C052  F044         	movff	lcd_4bit_send_char_data@_lcd+1,gpio_Pin_Write_Logic@pin_config+1
  2703   001FB8  0E01               	movlw	1
  2704   001FBA  6E45               	movwf	gpio_Pin_Write_Logic@logic^0,c
  2705   001FBC  EC5A  F00C         	call	_gpio_Pin_Write_Logic	;wreg free
  2706   001FC0  6E54               	movwf	lcd_4bit_send_char_data@ret^0,c
  2707                           
  2708                           ;ECUAL_LAYER/char_lcd/ecu_char_lcd.c: 104:            ret=send_data_4bit_mode(_lcd,data>
      +                          >4);
  2709   001FC2  C051  F04D         	movff	lcd_4bit_send_char_data@_lcd,send_data_4bit_mode@_lcd
  2710   001FC6  C052  F04E         	movff	lcd_4bit_send_char_data@_lcd+1,send_data_4bit_mode@_lcd+1
  2711   001FCA  3853               	swapf	lcd_4bit_send_char_data@data^0,w,c
  2712   001FCC  0B0F               	andlw	15
  2713   001FCE  6E4F               	movwf	send_data_4bit_mode@data^0,c
  2714   001FD0  EC0C  F00F         	call	_send_data_4bit_mode	;wreg free
  2715   001FD4  6E54               	movwf	lcd_4bit_send_char_data@ret^0,c
  2716                           
  2717                           ;ECUAL_LAYER/char_lcd/ecu_char_lcd.c: 106:            ret=send_4bit_mode_enable(_lcd);
  2718   001FD6  C051  F04D         	movff	lcd_4bit_send_char_data@_lcd,send_4bit_mode_enable@_lcd
  2719   001FDA  C052  F04E         	movff	lcd_4bit_send_char_data@_lcd+1,send_4bit_mode_enable@_lcd+1
  2720   001FDE  ECA0  F011         	call	_send_4bit_mode_enable	;wreg free
  2721   001FE2  6E54               	movwf	lcd_4bit_send_char_data@ret^0,c
  2722                           
  2723                           ;ECUAL_LAYER/char_lcd/ecu_char_lcd.c: 108:            ret=send_data_4bit_mode(_lcd,data)
      +                          ;
  2724   001FE4  C051  F04D         	movff	lcd_4bit_send_char_data@_lcd,send_data_4bit_mode@_lcd
  2725   001FE8  C052  F04E         	movff	lcd_4bit_send_char_data@_lcd+1,send_data_4bit_mode@_lcd+1
  2726   001FEC  C053  F04F         	movff	lcd_4bit_send_char_data@data,send_data_4bit_mode@data
  2727   001FF0  EC0C  F00F         	call	_send_data_4bit_mode	;wreg free
  2728   001FF4  6E54               	movwf	lcd_4bit_send_char_data@ret^0,c
  2729                           
  2730                           ;ECUAL_LAYER/char_lcd/ecu_char_lcd.c: 110:            ret=send_4bit_mode_enable(_lcd);
  2731   001FF6  C051  F04D         	movff	lcd_4bit_send_char_data@_lcd,send_4bit_mode_enable@_lcd
  2732   001FFA  C052  F04E         	movff	lcd_4bit_send_char_data@_lcd+1,send_4bit_mode_enable@_lcd+1
  2733   001FFE  ECA0  F011         	call	_send_4bit_mode_enable	;wreg free
  2734   002002  6E54               	movwf	lcd_4bit_send_char_data@ret^0,c
  2735   002004                     l3725:
  2736                           
  2737                           ;ECUAL_LAYER/char_lcd/ecu_char_lcd.c: 112:         return ret;
  2738   002004  5054               	movf	lcd_4bit_send_char_data@ret^0,w,c
  2739   002006  0012               	return		;funcret
  2740   002008                     __end_of_lcd_4bit_send_char_data:
  2741                           	callstack 0
  2742                           
  2743 ;; *************** function _lcd_4bit_initialize *****************
  2744 ;; Defined at:
  2745 ;;		line 25 in file "ECUAL_LAYER/char_lcd/ecu_char_lcd.c"
  2746 ;; Parameters:    Size  Location     Type
  2747 ;;  _lcd            2   20[COMRAM] PTR const struct .
  2748 ;;		 -> Lcd_Obj(6), 
  2749 ;; Auto vars:     Size  Location     Type
  2750 ;;  ret             1   25[COMRAM] unsigned char 
  2751 ;;  l_counter       1   24[COMRAM] unsigned char 
  2752 ;; Return value:  Size  Location     Type
  2753 ;;                  1    wreg      unsigned char 
  2754 ;; Registers used:
  2755 ;;		wreg, fsr2l, fsr2h, status,2, status,0, prodl, prodh, cstack
  2756 ;; Tracked objects:
  2757 ;;		On entry : 0/0
  2758 ;;		On exit  : 0/0
  2759 ;;		Unchanged: 0/0
  2760 ;; Data sizes:     COMRAM   BANK0   BANK1   BANK2   BANK3   BANK4   BANK5   BANK6   BANK7   BANK8   BANK9  BANK10  BANK1
      +1  BANK12  BANK13  BANK14  BANK15
  2761 ;;      Params:         2       0       0       0       0       0       0       0       0       0       0       0       
      +0       0       0       0       0
  2762 ;;      Locals:         2       0       0       0       0       0       0       0       0       0       0       0       
      +0       0       0       0       0
  2763 ;;      Temps:          2       0       0       0       0       0       0       0       0       0       0       0       
      +0       0       0       0       0
  2764 ;;      Totals:         6       0       0       0       0       0       0       0       0       0       0       0       
      +0       0       0       0       0
  2765 ;;Total ram usage:        6 bytes
  2766 ;; Hardware stack levels used: 1
  2767 ;; Hardware stack levels required when called: 6
  2768 ;; This function calls:
  2769 ;;		_gpio_Pin_Intialize
  2770 ;;		_lcd_4bit_send_command
  2771 ;; This function is called by:
  2772 ;;		_main
  2773 ;; This function uses a non-reentrant model
  2774 ;;
  2775                           
  2776                           	psect	text10
  2777   0019E0                     __ptext10:
  2778                           	callstack 0
  2779   0019E0                     _lcd_4bit_initialize:
  2780                           	callstack 24
  2781   0019E0                     
  2782                           ;ECUAL_LAYER/char_lcd/ecu_char_lcd.c: 27:         uint8 l_counter=0;
  2783   0019E0  0E00               	movlw	0
  2784   0019E2  6E59               	movwf	lcd_4bit_initialize@l_counter^0,c
  2785   0019E4                     
  2786                           ;ECUAL_LAYER/char_lcd/ecu_char_lcd.c: 28:         if (((void*)0)==_lcd){
  2787   0019E4  5055               	movf	lcd_4bit_initialize@_lcd^0,w,c
  2788   0019E6  1056               	iorwf	(lcd_4bit_initialize@_lcd+1)^0,w,c
  2789   0019E8  A4D8               	btfss	status,2,c
  2790   0019EA  EFF9  F00C         	goto	u2661
  2791   0019EE  EFFB  F00C         	goto	u2660
  2792   0019F2                     u2661:
  2793   0019F2  EFFD  F00C         	goto	l3927
  2794   0019F6                     u2660:
  2795   0019F6                     
  2796                           ;ECUAL_LAYER/char_lcd/ecu_char_lcd.c: 30:         }
  2797   0019F6  EF7F  F00D         	goto	l140
  2798   0019FA                     l3927:
  2799                           
  2800                           ;ECUAL_LAYER/char_lcd/ecu_char_lcd.c: 32:             ret=gpio_Pin_Intialize(&(_lcd->lcd
      +                          _rs));
  2801   0019FA  C055  F04D         	movff	lcd_4bit_initialize@_lcd,gpio_Pin_Intialize@pin_config
  2802   0019FE  C056  F04E         	movff	lcd_4bit_initialize@_lcd+1,gpio_Pin_Intialize@pin_config+1
  2803   001A02  EC3D  F010         	call	_gpio_Pin_Intialize	;wreg free
  2804   001A06  6E5A               	movwf	lcd_4bit_initialize@ret^0,c
  2805                           
  2806                           ;ECUAL_LAYER/char_lcd/ecu_char_lcd.c: 33:             ret=gpio_Pin_Intialize(&(_lcd->lcd
      +                          _en));
  2807   001A08  0E01               	movlw	1
  2808   001A0A  2455               	addwf	lcd_4bit_initialize@_lcd^0,w,c
  2809   001A0C  6E4D               	movwf	gpio_Pin_Intialize@pin_config^0,c
  2810   001A0E  0E00               	movlw	0
  2811   001A10  2056               	addwfc	(lcd_4bit_initialize@_lcd+1)^0,w,c
  2812   001A12  6E4E               	movwf	(gpio_Pin_Intialize@pin_config+1)^0,c
  2813   001A14  EC3D  F010         	call	_gpio_Pin_Intialize	;wreg free
  2814   001A18  6E5A               	movwf	lcd_4bit_initialize@ret^0,c
  2815   001A1A                     
  2816                           ;ECUAL_LAYER/char_lcd/ecu_char_lcd.c: 34:             for (l_counter=0;l_counter<4;l_cou
      +                          nter++){
  2817   001A1A  0E00               	movlw	0
  2818   001A1C  6E59               	movwf	lcd_4bit_initialize@l_counter^0,c
  2819   001A1E                     l3935:
  2820   001A1E  5059               	movf	lcd_4bit_initialize@l_counter^0,w,c
  2821   001A20  2455               	addwf	lcd_4bit_initialize@_lcd^0,w,c
  2822   001A22  6E57               	movwf	??_lcd_4bit_initialize^0,c
  2823   001A24  0E00               	movlw	0
  2824   001A26  2056               	addwfc	(lcd_4bit_initialize@_lcd+1)^0,w,c
  2825   001A28  6E58               	movwf	(??_lcd_4bit_initialize+1)^0,c
  2826   001A2A  0E02               	movlw	2
  2827   001A2C  2457               	addwf	??_lcd_4bit_initialize^0,w,c
  2828   001A2E  6E4D               	movwf	gpio_Pin_Intialize@pin_config^0,c
  2829   001A30  0E00               	movlw	0
  2830   001A32  2058               	addwfc	(??_lcd_4bit_initialize+1)^0,w,c
  2831   001A34  6E4E               	movwf	(gpio_Pin_Intialize@pin_config+1)^0,c
  2832   001A36  EC3D  F010         	call	_gpio_Pin_Intialize	;wreg free
  2833   001A3A                     
  2834                           ;ECUAL_LAYER/char_lcd/ecu_char_lcd.c: 36:             }
  2835   001A3A  2A59               	incf	lcd_4bit_initialize@l_counter^0,f,c
  2836   001A3C  0E03               	movlw	3
  2837   001A3E  6459               	cpfsgt	lcd_4bit_initialize@l_counter^0,c
  2838   001A40  EF24  F00D         	goto	u2671
  2839   001A44  EF26  F00D         	goto	u2670
  2840   001A48                     u2671:
  2841   001A48  EF0F  F00D         	goto	l3935
  2842   001A4C                     u2670:
  2843   001A4C                     
  2844                           ;ECUAL_LAYER/char_lcd/ecu_char_lcd.c: 37:              _delay((unsigned long)((20)*(8000
      +                          000UL/4000.0)));
  2845   001A4C  0E34               	movlw	52
  2846   001A4E  6E57               	movwf	??_lcd_4bit_initialize^0,c
  2847   001A50  0EF2               	movlw	242
  2848   001A52                     u3187:
  2849   001A52  2EE8               	decfsz	wreg,f,c
  2850   001A54  D7FE               	bra	u3187
  2851   001A56  2E57               	decfsz	??_lcd_4bit_initialize^0,f,c
  2852   001A58  D7FC               	bra	u3187
  2853   001A5A  C055  F051         	movff	lcd_4bit_initialize@_lcd,lcd_4bit_send_command@_lcd
  2854   001A5E  C056  F052         	movff	lcd_4bit_initialize@_lcd+1,lcd_4bit_send_command@_lcd+1
  2855   001A62  0E38               	movlw	56
  2856   001A64  6E53               	movwf	lcd_4bit_send_command@command^0,c
  2857   001A66  EC04  F010         	call	_lcd_4bit_send_command	;wreg free
  2858   001A6A                     
  2859                           ;ECUAL_LAYER/char_lcd/ecu_char_lcd.c: 39:            _delay((unsigned long)((5)*(8000000
      +                          UL/4000.0)));
  2860   001A6A  0E0D               	movlw	13
  2861   001A6C  6E57               	movwf	??_lcd_4bit_initialize^0,c
  2862   001A6E  0EFC               	movlw	252
  2863   001A70                     u3197:
  2864   001A70  2EE8               	decfsz	wreg,f,c
  2865   001A72  D7FE               	bra	u3197
  2866   001A74  2E57               	decfsz	??_lcd_4bit_initialize^0,f,c
  2867   001A76  D7FC               	bra	u3197
  2868   001A78  C055  F051         	movff	lcd_4bit_initialize@_lcd,lcd_4bit_send_command@_lcd
  2869   001A7C  C056  F052         	movff	lcd_4bit_initialize@_lcd+1,lcd_4bit_send_command@_lcd+1
  2870   001A80  0E38               	movlw	56
  2871   001A82  6E53               	movwf	lcd_4bit_send_command@command^0,c
  2872   001A84  EC04  F010         	call	_lcd_4bit_send_command	;wreg free
  2873   001A88                     
  2874                           ;ECUAL_LAYER/char_lcd/ecu_char_lcd.c: 41:            _delay((unsigned long)((150)*(80000
      +                          00UL/4000000.0)));
  2875   001A88  0E64               	movlw	100
  2876   001A8A                     u3207:
  2877   001A8A  2EE8               	decfsz	wreg,f,c
  2878   001A8C  D7FE               	bra	u3207
  2879   001A8E  C055  F051         	movff	lcd_4bit_initialize@_lcd,lcd_4bit_send_command@_lcd
  2880   001A92  C056  F052         	movff	lcd_4bit_initialize@_lcd+1,lcd_4bit_send_command@_lcd+1
  2881   001A96  0E38               	movlw	56
  2882   001A98  6E53               	movwf	lcd_4bit_send_command@command^0,c
  2883   001A9A  EC04  F010         	call	_lcd_4bit_send_command	;wreg free
  2884   001A9E  C055  F051         	movff	lcd_4bit_initialize@_lcd,lcd_4bit_send_command@_lcd
  2885   001AA2  C056  F052         	movff	lcd_4bit_initialize@_lcd+1,lcd_4bit_send_command@_lcd+1
  2886   001AA6  0E01               	movlw	1
  2887   001AA8  6E53               	movwf	lcd_4bit_send_command@command^0,c
  2888   001AAA  EC04  F010         	call	_lcd_4bit_send_command	;wreg free
  2889   001AAE  C055  F051         	movff	lcd_4bit_initialize@_lcd,lcd_4bit_send_command@_lcd
  2890   001AB2  C056  F052         	movff	lcd_4bit_initialize@_lcd+1,lcd_4bit_send_command@_lcd+1
  2891   001AB6  0E02               	movlw	2
  2892   001AB8  6E53               	movwf	lcd_4bit_send_command@command^0,c
  2893   001ABA  EC04  F010         	call	_lcd_4bit_send_command	;wreg free
  2894   001ABE  C055  F051         	movff	lcd_4bit_initialize@_lcd,lcd_4bit_send_command@_lcd
  2895   001AC2  C056  F052         	movff	lcd_4bit_initialize@_lcd+1,lcd_4bit_send_command@_lcd+1
  2896   001AC6  0E06               	movlw	6
  2897   001AC8  6E53               	movwf	lcd_4bit_send_command@command^0,c
  2898   001ACA  EC04  F010         	call	_lcd_4bit_send_command	;wreg free
  2899   001ACE  C055  F051         	movff	lcd_4bit_initialize@_lcd,lcd_4bit_send_command@_lcd
  2900   001AD2  C056  F052         	movff	lcd_4bit_initialize@_lcd+1,lcd_4bit_send_command@_lcd+1
  2901   001AD6  0E0E               	movlw	14
  2902   001AD8  6E53               	movwf	lcd_4bit_send_command@command^0,c
  2903   001ADA  EC04  F010         	call	_lcd_4bit_send_command	;wreg free
  2904   001ADE  C055  F051         	movff	lcd_4bit_initialize@_lcd,lcd_4bit_send_command@_lcd
  2905   001AE2  C056  F052         	movff	lcd_4bit_initialize@_lcd+1,lcd_4bit_send_command@_lcd+1
  2906   001AE6  0E28               	movlw	40
  2907   001AE8  6E53               	movwf	lcd_4bit_send_command@command^0,c
  2908   001AEA  EC04  F010         	call	_lcd_4bit_send_command	;wreg free
  2909   001AEE  C055  F051         	movff	lcd_4bit_initialize@_lcd,lcd_4bit_send_command@_lcd
  2910   001AF2  C056  F052         	movff	lcd_4bit_initialize@_lcd+1,lcd_4bit_send_command@_lcd+1
  2911   001AF6  0E80               	movlw	128
  2912   001AF8  6E53               	movwf	lcd_4bit_send_command@command^0,c
  2913   001AFA  EC04  F010         	call	_lcd_4bit_send_command	;wreg free
  2914   001AFE                     l140:
  2915   001AFE  0012               	return		;funcret
  2916   001B00                     __end_of_lcd_4bit_initialize:
  2917                           	callstack 0
  2918                           
  2919 ;; *************** function _lcd_4bit_send_command *****************
  2920 ;; Defined at:
  2921 ;;		line 65 in file "ECUAL_LAYER/char_lcd/ecu_char_lcd.c"
  2922 ;; Parameters:    Size  Location     Type
  2923 ;;  _lcd            2   16[COMRAM] PTR const struct .
  2924 ;;		 -> Lcd_Obj(6), 
  2925 ;;  command         1   18[COMRAM] unsigned char 
  2926 ;; Auto vars:     Size  Location     Type
  2927 ;;  ret             1   19[COMRAM] unsigned char 
  2928 ;; Return value:  Size  Location     Type
  2929 ;;                  1    wreg      unsigned char 
  2930 ;; Registers used:
  2931 ;;		wreg, fsr2l, fsr2h, status,2, status,0, prodl, prodh, cstack
  2932 ;; Tracked objects:
  2933 ;;		On entry : 0/0
  2934 ;;		On exit  : 0/0
  2935 ;;		Unchanged: 0/0
  2936 ;; Data sizes:     COMRAM   BANK0   BANK1   BANK2   BANK3   BANK4   BANK5   BANK6   BANK7   BANK8   BANK9  BANK10  BANK1
      +1  BANK12  BANK13  BANK14  BANK15
  2937 ;;      Params:         3       0       0       0       0       0       0       0       0       0       0       0       
      +0       0       0       0       0
  2938 ;;      Locals:         1       0       0       0       0       0       0       0       0       0       0       0       
      +0       0       0       0       0
  2939 ;;      Temps:          0       0       0       0       0       0       0       0       0       0       0       0       
      +0       0       0       0       0
  2940 ;;      Totals:         4       0       0       0       0       0       0       0       0       0       0       0       
      +0       0       0       0       0
  2941 ;;Total ram usage:        4 bytes
  2942 ;; Hardware stack levels used: 1
  2943 ;; Hardware stack levels required when called: 5
  2944 ;; This function calls:
  2945 ;;		_gpio_Pin_Write_Logic
  2946 ;;		_send_4bit_mode_enable
  2947 ;;		_send_data_4bit_mode
  2948 ;; This function is called by:
  2949 ;;		_main
  2950 ;;		_lcd_4bit_initialize
  2951 ;;		_set_cursor_4bit_mode
  2952 ;;		_lcd_4bit_send_custome_char
  2953 ;; This function uses a non-reentrant model
  2954 ;;
  2955                           
  2956                           	psect	text11
  2957   002008                     __ptext11:
  2958                           	callstack 0
  2959   002008                     _lcd_4bit_send_command:
  2960                           	callstack 24
  2961   002008                     
  2962                           ;ECUAL_LAYER/char_lcd/ecu_char_lcd.c: 67:         if (((void*)0)==_lcd){
  2963   002008  5051               	movf	lcd_4bit_send_command@_lcd^0,w,c
  2964   00200A  1052               	iorwf	(lcd_4bit_send_command@_lcd+1)^0,w,c
  2965   00200C  A4D8               	btfss	status,2,c
  2966   00200E  EF0B  F010         	goto	u2461
  2967   002012  EF0D  F010         	goto	u2460
  2968   002016                     u2461:
  2969   002016  EF11  F010         	goto	l3711
  2970   00201A                     u2460:
  2971   00201A                     
  2972                           ;ECUAL_LAYER/char_lcd/ecu_char_lcd.c: 68:             ret=(Std_ReturnType)0x00;
  2973   00201A  0E00               	movlw	0
  2974   00201C  6E54               	movwf	lcd_4bit_send_command@ret^0,c
  2975                           
  2976                           ;ECUAL_LAYER/char_lcd/ecu_char_lcd.c: 69:         }
  2977   00201E  EF3B  F010         	goto	l3713
  2978   002022                     l3711:
  2979                           
  2980                           ;ECUAL_LAYER/char_lcd/ecu_char_lcd.c: 73:            ret=gpio_Pin_Write_Logic(&(_lcd->lc
      +                          d_rs),GPIO_LOW);
  2981   002022  C051  F043         	movff	lcd_4bit_send_command@_lcd,gpio_Pin_Write_Logic@pin_config
  2982   002026  C052  F044         	movff	lcd_4bit_send_command@_lcd+1,gpio_Pin_Write_Logic@pin_config+1
  2983   00202A  0E00               	movlw	0
  2984   00202C  6E45               	movwf	gpio_Pin_Write_Logic@logic^0,c
  2985   00202E  EC5A  F00C         	call	_gpio_Pin_Write_Logic	;wreg free
  2986   002032  6E54               	movwf	lcd_4bit_send_command@ret^0,c
  2987                           
  2988                           ;ECUAL_LAYER/char_lcd/ecu_char_lcd.c: 75:            ret=send_data_4bit_mode(_lcd,comman
      +                          d>>4);
  2989   002034  C051  F04D         	movff	lcd_4bit_send_command@_lcd,send_data_4bit_mode@_lcd
  2990   002038  C052  F04E         	movff	lcd_4bit_send_command@_lcd+1,send_data_4bit_mode@_lcd+1
  2991   00203C  3853               	swapf	lcd_4bit_send_command@command^0,w,c
  2992   00203E  0B0F               	andlw	15
  2993   002040  6E4F               	movwf	send_data_4bit_mode@data^0,c
  2994   002042  EC0C  F00F         	call	_send_data_4bit_mode	;wreg free
  2995   002046  6E54               	movwf	lcd_4bit_send_command@ret^0,c
  2996                           
  2997                           ;ECUAL_LAYER/char_lcd/ecu_char_lcd.c: 77:            ret=send_4bit_mode_enable(_lcd);
  2998   002048  C051  F04D         	movff	lcd_4bit_send_command@_lcd,send_4bit_mode_enable@_lcd
  2999   00204C  C052  F04E         	movff	lcd_4bit_send_command@_lcd+1,send_4bit_mode_enable@_lcd+1
  3000   002050  ECA0  F011         	call	_send_4bit_mode_enable	;wreg free
  3001   002054  6E54               	movwf	lcd_4bit_send_command@ret^0,c
  3002                           
  3003                           ;ECUAL_LAYER/char_lcd/ecu_char_lcd.c: 79:            ret=send_data_4bit_mode(_lcd,comman
      +                          d);
  3004   002056  C051  F04D         	movff	lcd_4bit_send_command@_lcd,send_data_4bit_mode@_lcd
  3005   00205A  C052  F04E         	movff	lcd_4bit_send_command@_lcd+1,send_data_4bit_mode@_lcd+1
  3006   00205E  C053  F04F         	movff	lcd_4bit_send_command@command,send_data_4bit_mode@data
  3007   002062  EC0C  F00F         	call	_send_data_4bit_mode	;wreg free
  3008   002066  6E54               	movwf	lcd_4bit_send_command@ret^0,c
  3009                           
  3010                           ;ECUAL_LAYER/char_lcd/ecu_char_lcd.c: 81:            ret=send_4bit_mode_enable(_lcd);
  3011   002068  C051  F04D         	movff	lcd_4bit_send_command@_lcd,send_4bit_mode_enable@_lcd
  3012   00206C  C052  F04E         	movff	lcd_4bit_send_command@_lcd+1,send_4bit_mode_enable@_lcd+1
  3013   002070  ECA0  F011         	call	_send_4bit_mode_enable	;wreg free
  3014   002074  6E54               	movwf	lcd_4bit_send_command@ret^0,c
  3015   002076                     l3713:
  3016                           
  3017                           ;ECUAL_LAYER/char_lcd/ecu_char_lcd.c: 83:         return ret;
  3018   002076  5054               	movf	lcd_4bit_send_command@ret^0,w,c
  3019   002078  0012               	return		;funcret
  3020   00207A                     __end_of_lcd_4bit_send_command:
  3021                           	callstack 0
  3022                           
  3023 ;; *************** function _send_data_4bit_mode *****************
  3024 ;; Defined at:
  3025 ;;		line 388 in file "ECUAL_LAYER/char_lcd/ecu_char_lcd.c"
  3026 ;; Parameters:    Size  Location     Type
  3027 ;;  _lcd            2   12[COMRAM] PTR const struct .
  3028 ;;		 -> Lcd_Obj(6), 
  3029 ;;  data            1   14[COMRAM] unsigned char 
  3030 ;; Auto vars:     Size  Location     Type
  3031 ;;  ret             1   15[COMRAM] unsigned char 
  3032 ;; Return value:  Size  Location     Type
  3033 ;;                  1    wreg      unsigned char 
  3034 ;; Registers used:
  3035 ;;		wreg, fsr2l, fsr2h, status,2, status,0, prodl, prodh, cstack
  3036 ;; Tracked objects:
  3037 ;;		On entry : 0/0
  3038 ;;		On exit  : 0/0
  3039 ;;		Unchanged: 0/0
  3040 ;; Data sizes:     COMRAM   BANK0   BANK1   BANK2   BANK3   BANK4   BANK5   BANK6   BANK7   BANK8   BANK9  BANK10  BANK1
      +1  BANK12  BANK13  BANK14  BANK15
  3041 ;;      Params:         3       0       0       0       0       0       0       0       0       0       0       0       
      +0       0       0       0       0
  3042 ;;      Locals:         1       0       0       0       0       0       0       0       0       0       0       0       
      +0       0       0       0       0
  3043 ;;      Temps:          0       0       0       0       0       0       0       0       0       0       0       0       
      +0       0       0       0       0
  3044 ;;      Totals:         4       0       0       0       0       0       0       0       0       0       0       0       
      +0       0       0       0       0
  3045 ;;Total ram usage:        4 bytes
  3046 ;; Hardware stack levels used: 1
  3047 ;; Hardware stack levels required when called: 4
  3048 ;; This function calls:
  3049 ;;		_gpio_Pin_Write_Logic
  3050 ;; This function is called by:
  3051 ;;		_lcd_4bit_send_command
  3052 ;;		_lcd_4bit_send_char_data
  3053 ;; This function uses a non-reentrant model
  3054 ;;
  3055                           
  3056                           	psect	text12
  3057   001E18                     __ptext12:
  3058                           	callstack 0
  3059   001E18                     _send_data_4bit_mode:
  3060                           	callstack 24
  3061   001E18                     
  3062                           ;ECUAL_LAYER/char_lcd/ecu_char_lcd.c: 390:         if (((void*)0)==_lcd){
  3063   001E18  504D               	movf	send_data_4bit_mode@_lcd^0,w,c
  3064   001E1A  104E               	iorwf	(send_data_4bit_mode@_lcd+1)^0,w,c
  3065   001E1C  A4D8               	btfss	status,2,c
  3066   001E1E  EF13  F00F         	goto	u2301
  3067   001E22  EF15  F00F         	goto	u2300
  3068   001E26                     u2301:
  3069   001E26  EF19  F00F         	goto	l3625
  3070   001E2A                     u2300:
  3071   001E2A                     
  3072                           ;ECUAL_LAYER/char_lcd/ecu_char_lcd.c: 391:             ret=(Std_ReturnType)0x00;
  3073   001E2A  0E00               	movlw	0
  3074   001E2C  6E50               	movwf	send_data_4bit_mode@ret^0,c
  3075                           
  3076                           ;ECUAL_LAYER/char_lcd/ecu_char_lcd.c: 392:         }
  3077   001E2E  EF4E  F00F         	goto	l3627
  3078   001E32                     l3625:
  3079                           
  3080                           ;ECUAL_LAYER/char_lcd/ecu_char_lcd.c: 394:             ret=gpio_Pin_Write_Logic(&(_lcd->
      +                          lcd_data[0]),(data >> 0) & (uint8)0x01);
  3081   001E32  0E02               	movlw	2
  3082   001E34  244D               	addwf	send_data_4bit_mode@_lcd^0,w,c
  3083   001E36  6E43               	movwf	gpio_Pin_Write_Logic@pin_config^0,c
  3084   001E38  0E00               	movlw	0
  3085   001E3A  204E               	addwfc	(send_data_4bit_mode@_lcd+1)^0,w,c
  3086   001E3C  6E44               	movwf	(gpio_Pin_Write_Logic@pin_config+1)^0,c
  3087   001E3E  504F               	movf	send_data_4bit_mode@data^0,w,c
  3088   001E40  0B01               	andlw	1
  3089   001E42  6E45               	movwf	gpio_Pin_Write_Logic@logic^0,c
  3090   001E44  EC5A  F00C         	call	_gpio_Pin_Write_Logic	;wreg free
  3091   001E48  6E50               	movwf	send_data_4bit_mode@ret^0,c
  3092                           
  3093                           ;ECUAL_LAYER/char_lcd/ecu_char_lcd.c: 395:             ret=gpio_Pin_Write_Logic(&(_lcd->
      +                          lcd_data[1]),(data >> 1) & (uint8)0x01);
  3094   001E4A  0E03               	movlw	3
  3095   001E4C  244D               	addwf	send_data_4bit_mode@_lcd^0,w,c
  3096   001E4E  6E43               	movwf	gpio_Pin_Write_Logic@pin_config^0,c
  3097   001E50  0E00               	movlw	0
  3098   001E52  204E               	addwfc	(send_data_4bit_mode@_lcd+1)^0,w,c
  3099   001E54  6E44               	movwf	(gpio_Pin_Write_Logic@pin_config+1)^0,c
  3100   001E56  90D8               	bcf	status,0,c
  3101   001E58  304F               	rrcf	send_data_4bit_mode@data^0,w,c
  3102   001E5A  0B01               	andlw	1
  3103   001E5C  6E45               	movwf	gpio_Pin_Write_Logic@logic^0,c
  3104   001E5E  EC5A  F00C         	call	_gpio_Pin_Write_Logic	;wreg free
  3105   001E62  6E50               	movwf	send_data_4bit_mode@ret^0,c
  3106                           
  3107                           ;ECUAL_LAYER/char_lcd/ecu_char_lcd.c: 396:             ret=gpio_Pin_Write_Logic(&(_lcd->
      +                          lcd_data[2]),(data >> 2) & (uint8)0x01);
  3108   001E64  0E04               	movlw	4
  3109   001E66  244D               	addwf	send_data_4bit_mode@_lcd^0,w,c
  3110   001E68  6E43               	movwf	gpio_Pin_Write_Logic@pin_config^0,c
  3111   001E6A  0E00               	movlw	0
  3112   001E6C  204E               	addwfc	(send_data_4bit_mode@_lcd+1)^0,w,c
  3113   001E6E  6E44               	movwf	(gpio_Pin_Write_Logic@pin_config+1)^0,c
  3114   001E70  404F               	rrncf	send_data_4bit_mode@data^0,w,c
  3115   001E72  42E8               	rrncf	wreg,f,c
  3116   001E74  0B3F               	andlw	63
  3117   001E76  0B01               	andlw	1
  3118   001E78  6E45               	movwf	gpio_Pin_Write_Logic@logic^0,c
  3119   001E7A  EC5A  F00C         	call	_gpio_Pin_Write_Logic	;wreg free
  3120   001E7E  6E50               	movwf	send_data_4bit_mode@ret^0,c
  3121                           
  3122                           ;ECUAL_LAYER/char_lcd/ecu_char_lcd.c: 397:             ret=gpio_Pin_Write_Logic(&(_lcd->
      +                          lcd_data[3]),(data >> 3) & (uint8)0x01);
  3123   001E80  0E05               	movlw	5
  3124   001E82  244D               	addwf	send_data_4bit_mode@_lcd^0,w,c
  3125   001E84  6E43               	movwf	gpio_Pin_Write_Logic@pin_config^0,c
  3126   001E86  0E00               	movlw	0
  3127   001E88  204E               	addwfc	(send_data_4bit_mode@_lcd+1)^0,w,c
  3128   001E8A  6E44               	movwf	(gpio_Pin_Write_Logic@pin_config+1)^0,c
  3129   001E8C  384F               	swapf	send_data_4bit_mode@data^0,w,c
  3130   001E8E  46E8               	rlncf	wreg,f,c
  3131   001E90  0B1F               	andlw	31
  3132   001E92  0B01               	andlw	1
  3133   001E94  6E45               	movwf	gpio_Pin_Write_Logic@logic^0,c
  3134   001E96  EC5A  F00C         	call	_gpio_Pin_Write_Logic	;wreg free
  3135   001E9A  6E50               	movwf	send_data_4bit_mode@ret^0,c
  3136   001E9C                     l3627:
  3137                           
  3138                           ;ECUAL_LAYER/char_lcd/ecu_char_lcd.c: 399:         return ret;
  3139   001E9C  5050               	movf	send_data_4bit_mode@ret^0,w,c
  3140   001E9E  0012               	return		;funcret
  3141   001EA0                     __end_of_send_data_4bit_mode:
  3142                           	callstack 0
  3143                           
  3144 ;; *************** function _send_4bit_mode_enable *****************
  3145 ;; Defined at:
  3146 ;;		line 402 in file "ECUAL_LAYER/char_lcd/ecu_char_lcd.c"
  3147 ;; Parameters:    Size  Location     Type
  3148 ;;  _lcd            2   12[COMRAM] PTR const struct .
  3149 ;;		 -> Lcd_Obj(6), 
  3150 ;; Auto vars:     Size  Location     Type
  3151 ;;  ret             1   14[COMRAM] unsigned char 
  3152 ;; Return value:  Size  Location     Type
  3153 ;;                  1    wreg      unsigned char 
  3154 ;; Registers used:
  3155 ;;		wreg, fsr2l, fsr2h, status,2, status,0, prodl, prodh, cstack
  3156 ;; Tracked objects:
  3157 ;;		On entry : 0/0
  3158 ;;		On exit  : 0/0
  3159 ;;		Unchanged: 0/0
  3160 ;; Data sizes:     COMRAM   BANK0   BANK1   BANK2   BANK3   BANK4   BANK5   BANK6   BANK7   BANK8   BANK9  BANK10  BANK1
      +1  BANK12  BANK13  BANK14  BANK15
  3161 ;;      Params:         2       0       0       0       0       0       0       0       0       0       0       0       
      +0       0       0       0       0
  3162 ;;      Locals:         1       0       0       0       0       0       0       0       0       0       0       0       
      +0       0       0       0       0
  3163 ;;      Temps:          0       0       0       0       0       0       0       0       0       0       0       0       
      +0       0       0       0       0
  3164 ;;      Totals:         3       0       0       0       0       0       0       0       0       0       0       0       
      +0       0       0       0       0
  3165 ;;Total ram usage:        3 bytes
  3166 ;; Hardware stack levels used: 1
  3167 ;; Hardware stack levels required when called: 4
  3168 ;; This function calls:
  3169 ;;		_gpio_Pin_Write_Logic
  3170 ;; This function is called by:
  3171 ;;		_lcd_4bit_send_command
  3172 ;;		_lcd_4bit_send_char_data
  3173 ;; This function uses a non-reentrant model
  3174 ;;
  3175                           
  3176                           	psect	text13
  3177   002340                     __ptext13:
  3178                           	callstack 0
  3179   002340                     _send_4bit_mode_enable:
  3180                           	callstack 24
  3181   002340                     
  3182                           ;ECUAL_LAYER/char_lcd/ecu_char_lcd.c: 404:         if (((void*)0)==_lcd){
  3183   002340  504D               	movf	send_4bit_mode_enable@_lcd^0,w,c
  3184   002342  104E               	iorwf	(send_4bit_mode_enable@_lcd+1)^0,w,c
  3185   002344  A4D8               	btfss	status,2,c
  3186   002346  EFA7  F011         	goto	u2311
  3187   00234A  EFA9  F011         	goto	u2310
  3188   00234E                     u2311:
  3189   00234E  EFAD  F011         	goto	l3637
  3190   002352                     u2310:
  3191   002352                     
  3192                           ;ECUAL_LAYER/char_lcd/ecu_char_lcd.c: 405:             ret=(Std_ReturnType)0x00;
  3193   002352  0E00               	movlw	0
  3194   002354  6E4F               	movwf	send_4bit_mode_enable@ret^0,c
  3195                           
  3196                           ;ECUAL_LAYER/char_lcd/ecu_char_lcd.c: 406:         }
  3197   002356  EFC6  F011         	goto	l3643
  3198   00235A                     l3637:
  3199   00235A  0E01               	movlw	1
  3200   00235C  244D               	addwf	send_4bit_mode_enable@_lcd^0,w,c
  3201   00235E  6E43               	movwf	gpio_Pin_Write_Logic@pin_config^0,c
  3202   002360  0E00               	movlw	0
  3203   002362  204E               	addwfc	(send_4bit_mode_enable@_lcd+1)^0,w,c
  3204   002364  6E44               	movwf	(gpio_Pin_Write_Logic@pin_config+1)^0,c
  3205   002366  0E01               	movlw	1
  3206   002368  6E45               	movwf	gpio_Pin_Write_Logic@logic^0,c
  3207   00236A  EC5A  F00C         	call	_gpio_Pin_Write_Logic	;wreg free
  3208   00236E                     
  3209                           ;ECUAL_LAYER/char_lcd/ecu_char_lcd.c: 409:             _delay((unsigned long)((5)*(80000
      +                          00UL/4000000.0)));
  3210   00236E  0E03               	movlw	3
  3211   002370                     u3217:
  3212   002370  2EE8               	decfsz	wreg,f,c
  3213   002372  D7FE               	bra	u3217
  3214   002374  F000               	nop	
  3215   002376                     
  3216                           ;ECUAL_LAYER/char_lcd/ecu_char_lcd.c: 410:             ret=gpio_Pin_Write_Logic(&(_lcd->
      +                          lcd_en),GPIO_LOW);
  3217   002376  0E01               	movlw	1
  3218   002378  244D               	addwf	send_4bit_mode_enable@_lcd^0,w,c
  3219   00237A  6E43               	movwf	gpio_Pin_Write_Logic@pin_config^0,c
  3220   00237C  0E00               	movlw	0
  3221   00237E  204E               	addwfc	(send_4bit_mode_enable@_lcd+1)^0,w,c
  3222   002380  6E44               	movwf	(gpio_Pin_Write_Logic@pin_config+1)^0,c
  3223   002382  0E00               	movlw	0
  3224   002384  6E45               	movwf	gpio_Pin_Write_Logic@logic^0,c
  3225   002386  EC5A  F00C         	call	_gpio_Pin_Write_Logic	;wreg free
  3226   00238A  6E4F               	movwf	send_4bit_mode_enable@ret^0,c
  3227   00238C                     l3643:
  3228                           
  3229                           ;ECUAL_LAYER/char_lcd/ecu_char_lcd.c: 412:         return ret;
  3230   00238C  504F               	movf	send_4bit_mode_enable@ret^0,w,c
  3231   00238E  0012               	return		;funcret
  3232   002390                     __end_of_send_4bit_mode_enable:
  3233                           	callstack 0
  3234                           
  3235 ;; *************** function _keypad_initialize *****************
  3236 ;; Defined at:
  3237 ;;		line 24 in file "ECUAL_LAYER/key_pad/ecu_keypad.c"
  3238 ;; Parameters:    Size  Location     Type
  3239 ;;  _keypad_obj     2   16[COMRAM] PTR const struct .
  3240 ;;		 -> Keypad_Obj(8), 
  3241 ;; Auto vars:     Size  Location     Type
  3242 ;;  keypad_colum    1   21[COMRAM] unsigned char 
  3243 ;;  keypad_rows     1   20[COMRAM] unsigned char 
  3244 ;;  ret             1    0        unsigned char 
  3245 ;; Return value:  Size  Location     Type
  3246 ;;                  1    wreg      unsigned char 
  3247 ;; Registers used:
  3248 ;;		wreg, fsr2l, fsr2h, status,2, status,0, prodl, prodh, cstack
  3249 ;; Tracked objects:
  3250 ;;		On entry : 0/0
  3251 ;;		On exit  : 0/0
  3252 ;;		Unchanged: 0/0
  3253 ;; Data sizes:     COMRAM   BANK0   BANK1   BANK2   BANK3   BANK4   BANK5   BANK6   BANK7   BANK8   BANK9  BANK10  BANK1
      +1  BANK12  BANK13  BANK14  BANK15
  3254 ;;      Params:         2       0       0       0       0       0       0       0       0       0       0       0       
      +0       0       0       0       0
  3255 ;;      Locals:         2       0       0       0       0       0       0       0       0       0       0       0       
      +0       0       0       0       0
  3256 ;;      Temps:          2       0       0       0       0       0       0       0       0       0       0       0       
      +0       0       0       0       0
  3257 ;;      Totals:         6       0       0       0       0       0       0       0       0       0       0       0       
      +0       0       0       0       0
  3258 ;;Total ram usage:        6 bytes
  3259 ;; Hardware stack levels used: 1
  3260 ;; Hardware stack levels required when called: 5
  3261 ;; This function calls:
  3262 ;;		_gpio_Pin_Derction_Intialize
  3263 ;;		_gpio_Pin_Intialize
  3264 ;; This function is called by:
  3265 ;;		_main
  3266 ;; This function uses a non-reentrant model
  3267 ;;
  3268                           
  3269                           	psect	text14
  3270   001F1E                     __ptext14:
  3271                           	callstack 0
  3272   001F1E                     _keypad_initialize:
  3273                           	callstack 25
  3274   001F1E                     
  3275                           ;ECUAL_LAYER/key_pad/ecu_keypad.c: 26:        uint8 keypad_rows=0,keypad_colums=0;
  3276   001F1E  0E00               	movlw	0
  3277   001F20  6E55               	movwf	keypad_initialize@keypad_rows^0,c
  3278   001F22  0E00               	movlw	0
  3279   001F24  6E56               	movwf	keypad_initialize@keypad_colums^0,c
  3280   001F26                     
  3281                           ;ECUAL_LAYER/key_pad/ecu_keypad.c: 27:         if (((void*)0)==_keypad_obj){
  3282   001F26  5051               	movf	keypad_initialize@_keypad_obj^0,w,c
  3283   001F28  1052               	iorwf	(keypad_initialize@_keypad_obj+1)^0,w,c
  3284   001F2A  A4D8               	btfss	status,2,c
  3285   001F2C  EF9A  F00F         	goto	u2631
  3286   001F30  EF9C  F00F         	goto	u2630
  3287   001F34                     u2631:
  3288   001F34  EF9E  F00F         	goto	l3897
  3289   001F38                     u2630:
  3290   001F38                     
  3291                           ;ECUAL_LAYER/key_pad/ecu_keypad.c: 29:         }
  3292   001F38  EFCA  F00F         	goto	l329
  3293   001F3C                     l3897:
  3294                           
  3295                           ;ECUAL_LAYER/key_pad/ecu_keypad.c: 31:             for (keypad_rows=0;keypad_rows<4;keyp
      +                          ad_rows++){
  3296   001F3C  0E00               	movlw	0
  3297   001F3E  6E55               	movwf	keypad_initialize@keypad_rows^0,c
  3298   001F40                     l3903:
  3299   001F40  5055               	movf	keypad_initialize@keypad_rows^0,w,c
  3300   001F42  2451               	addwf	keypad_initialize@_keypad_obj^0,w,c
  3301   001F44  6E4D               	movwf	gpio_Pin_Intialize@pin_config^0,c
  3302   001F46  0E00               	movlw	0
  3303   001F48  2052               	addwfc	(keypad_initialize@_keypad_obj+1)^0,w,c
  3304   001F4A  6E4E               	movwf	(gpio_Pin_Intialize@pin_config+1)^0,c
  3305   001F4C  EC3D  F010         	call	_gpio_Pin_Intialize	;wreg free
  3306   001F50                     
  3307                           ;ECUAL_LAYER/key_pad/ecu_keypad.c: 33:             }
  3308   001F50  2A55               	incf	keypad_initialize@keypad_rows^0,f,c
  3309   001F52  0E03               	movlw	3
  3310   001F54  6455               	cpfsgt	keypad_initialize@keypad_rows^0,c
  3311   001F56  EFAF  F00F         	goto	u2641
  3312   001F5A  EFB1  F00F         	goto	u2640
  3313   001F5E                     u2641:
  3314   001F5E  EFA0  F00F         	goto	l3903
  3315   001F62                     u2640:
  3316   001F62                     
  3317                           ;ECUAL_LAYER/key_pad/ecu_keypad.c: 34:             for (keypad_colums=0;keypad_colums<4;
      +                          keypad_colums++){
  3318   001F62  0E00               	movlw	0
  3319   001F64  6E56               	movwf	keypad_initialize@keypad_colums^0,c
  3320   001F66                     l3915:
  3321   001F66  5056               	movf	keypad_initialize@keypad_colums^0,w,c
  3322   001F68  2451               	addwf	keypad_initialize@_keypad_obj^0,w,c
  3323   001F6A  6E53               	movwf	??_keypad_initialize^0,c
  3324   001F6C  0E00               	movlw	0
  3325   001F6E  2052               	addwfc	(keypad_initialize@_keypad_obj+1)^0,w,c
  3326   001F70  6E54               	movwf	(??_keypad_initialize+1)^0,c
  3327   001F72  0E04               	movlw	4
  3328   001F74  2453               	addwf	??_keypad_initialize^0,w,c
  3329   001F76  6E43               	movwf	gpio_Pin_Derction_Intialize@pin_config^0,c
  3330   001F78  0E00               	movlw	0
  3331   001F7A  2054               	addwfc	(??_keypad_initialize+1)^0,w,c
  3332   001F7C  6E44               	movwf	(gpio_Pin_Derction_Intialize@pin_config+1)^0,c
  3333   001F7E  ECB8  F00B         	call	_gpio_Pin_Derction_Intialize	;wreg free
  3334   001F82                     
  3335                           ;ECUAL_LAYER/key_pad/ecu_keypad.c: 36:             }
  3336   001F82  2A56               	incf	keypad_initialize@keypad_colums^0,f,c
  3337   001F84  0E03               	movlw	3
  3338   001F86  6456               	cpfsgt	keypad_initialize@keypad_colums^0,c
  3339   001F88  EFC8  F00F         	goto	u2651
  3340   001F8C  EFCA  F00F         	goto	u2650
  3341   001F90                     u2651:
  3342   001F90  EFB3  F00F         	goto	l3915
  3343   001F94                     u2650:
  3344   001F94                     l329:
  3345   001F94  0012               	return		;funcret
  3346   001F96                     __end_of_keypad_initialize:
  3347                           	callstack 0
  3348                           
  3349 ;; *************** function _keypad_get_value *****************
  3350 ;; Defined at:
  3351 ;;		line 50 in file "ECUAL_LAYER/key_pad/ecu_keypad.c"
  3352 ;; Parameters:    Size  Location     Type
  3353 ;;  _keypad_obj     2   12[COMRAM] PTR const struct .
  3354 ;;		 -> Keypad_Obj(8), 
  3355 ;;  value           2   14[COMRAM] PTR unsigned char 
  3356 ;;		 -> main@u8KeyPadPressed(1), 
  3357 ;; Auto vars:     Size  Location     Type
  3358 ;;  counter_colu    1   21[COMRAM] unsigned char 
  3359 ;;  counter_rows    1   20[COMRAM] unsigned char 
  3360 ;;  l_counter       1   19[COMRAM] unsigned char 
  3361 ;;  column_logic    1   18[COMRAM] unsigned char 
  3362 ;;  ret             1    0        unsigned char 
  3363 ;; Return value:  Size  Location     Type
  3364 ;;                  1    wreg      unsigned char 
  3365 ;; Registers used:
  3366 ;;		wreg, fsr2l, fsr2h, status,2, status,0, tblptrl, tblptrh, tblptru, prodl, prodh, cstack
  3367 ;; Tracked objects:
  3368 ;;		On entry : 0/0
  3369 ;;		On exit  : 0/0
  3370 ;;		Unchanged: 0/0
  3371 ;; Data sizes:     COMRAM   BANK0   BANK1   BANK2   BANK3   BANK4   BANK5   BANK6   BANK7   BANK8   BANK9  BANK10  BANK1
      +1  BANK12  BANK13  BANK14  BANK15
  3372 ;;      Params:         4       0       0       0       0       0       0       0       0       0       0       0       
      +0       0       0       0       0
  3373 ;;      Locals:         4       0       0       0       0       0       0       0       0       0       0       0       
      +0       0       0       0       0
  3374 ;;      Temps:          2       0       0       0       0       0       0       0       0       0       0       0       
      +0       0       0       0       0
  3375 ;;      Totals:        10       0       0       0       0       0       0       0       0       0       0       0       
      +0       0       0       0       0
  3376 ;;Total ram usage:       10 bytes
  3377 ;; Hardware stack levels used: 1
  3378 ;; Hardware stack levels required when called: 4
  3379 ;; This function calls:
  3380 ;;		_gpio_Pin_Read_Logic
  3381 ;;		_gpio_Pin_Write_Logic
  3382 ;; This function is called by:
  3383 ;;		_main
  3384 ;; This function uses a non-reentrant model
  3385 ;;
  3386                           
  3387                           	psect	text15
  3388   001B00                     __ptext15:
  3389                           	callstack 0
  3390   001B00                     _keypad_get_value:
  3391                           	callstack 26
  3392   001B00                     
  3393                           ;ECUAL_LAYER/key_pad/ecu_keypad.c: 52:         uint8 counter_rows=0,counter_colums=0;
  3394   001B00  0E00               	movlw	0
  3395   001B02  6E55               	movwf	keypad_get_value@counter_rows^0,c
  3396   001B04  0E00               	movlw	0
  3397   001B06  6E56               	movwf	keypad_get_value@counter_colums^0,c
  3398                           
  3399                           ;ECUAL_LAYER/key_pad/ecu_keypad.c: 53:         uint8 l_counter=0;
  3400   001B08  0E00               	movlw	0
  3401   001B0A  6E54               	movwf	keypad_get_value@l_counter^0,c
  3402                           
  3403                           ;ECUAL_LAYER/key_pad/ecu_keypad.c: 54:         uint8 column_logic_pin=0;
  3404   001B0C  0E00               	movlw	0
  3405   001B0E  6E53               	movwf	keypad_get_value@column_logic_pin^0,c
  3406   001B10                     
  3407                           ;ECUAL_LAYER/key_pad/ecu_keypad.c: 55:         if ((((void*)0)==_keypad_obj) || (((void*
      +                          )0)==value)){
  3408   001B10  504D               	movf	keypad_get_value@_keypad_obj^0,w,c
  3409   001B12  104E               	iorwf	(keypad_get_value@_keypad_obj+1)^0,w,c
  3410   001B14  B4D8               	btfsc	status,2,c
  3411   001B16  EF8F  F00D         	goto	u2741
  3412   001B1A  EF91  F00D         	goto	u2740
  3413   001B1E                     u2741:
  3414   001B1E  EF9A  F00D         	goto	l4035
  3415   001B22                     u2740:
  3416   001B22  504F               	movf	keypad_get_value@value^0,w,c
  3417   001B24  1050               	iorwf	(keypad_get_value@value+1)^0,w,c
  3418   001B26  A4D8               	btfss	status,2,c
  3419   001B28  EF98  F00D         	goto	u2751
  3420   001B2C  EF9A  F00D         	goto	u2750
  3421   001B30                     u2751:
  3422   001B30  EF9C  F00D         	goto	l4037
  3423   001B34                     u2750:
  3424   001B34                     l4035:
  3425                           
  3426                           ;ECUAL_LAYER/key_pad/ecu_keypad.c: 57:         }
  3427   001B34  EF03  F00E         	goto	l343
  3428   001B38                     l4037:
  3429                           
  3430                           ;ECUAL_LAYER/key_pad/ecu_keypad.c: 59:             for (counter_rows=0;counter_rows<4;co
      +                          unter_rows++){
  3431   001B38  0E00               	movlw	0
  3432   001B3A  6E55               	movwf	keypad_get_value@counter_rows^0,c
  3433   001B3C                     l4043:
  3434                           
  3435                           ;ECUAL_LAYER/key_pad/ecu_keypad.c: 61:                 for (l_counter=0;l_counter<4;l_co
      +                          unter++){
  3436   001B3C  0E00               	movlw	0
  3437   001B3E  6E54               	movwf	keypad_get_value@l_counter^0,c
  3438   001B40                     l4049:
  3439   001B40  5054               	movf	keypad_get_value@l_counter^0,w,c
  3440   001B42  244D               	addwf	keypad_get_value@_keypad_obj^0,w,c
  3441   001B44  6E43               	movwf	gpio_Pin_Write_Logic@pin_config^0,c
  3442   001B46  0E00               	movlw	0
  3443   001B48  204E               	addwfc	(keypad_get_value@_keypad_obj+1)^0,w,c
  3444   001B4A  6E44               	movwf	(gpio_Pin_Write_Logic@pin_config+1)^0,c
  3445   001B4C  0E00               	movlw	0
  3446   001B4E  6E45               	movwf	gpio_Pin_Write_Logic@logic^0,c
  3447   001B50  EC5A  F00C         	call	_gpio_Pin_Write_Logic	;wreg free
  3448   001B54                     
  3449                           ;ECUAL_LAYER/key_pad/ecu_keypad.c: 63:                 }
  3450   001B54  2A54               	incf	keypad_get_value@l_counter^0,f,c
  3451   001B56  0E03               	movlw	3
  3452   001B58  6454               	cpfsgt	keypad_get_value@l_counter^0,c
  3453   001B5A  EFB1  F00D         	goto	u2761
  3454   001B5E  EFB3  F00D         	goto	u2760
  3455   001B62                     u2761:
  3456   001B62  EFA0  F00D         	goto	l4049
  3457   001B66                     u2760:
  3458   001B66  5055               	movf	keypad_get_value@counter_rows^0,w,c
  3459   001B68  244D               	addwf	keypad_get_value@_keypad_obj^0,w,c
  3460   001B6A  6E43               	movwf	gpio_Pin_Write_Logic@pin_config^0,c
  3461   001B6C  0E00               	movlw	0
  3462   001B6E  204E               	addwfc	(keypad_get_value@_keypad_obj+1)^0,w,c
  3463   001B70  6E44               	movwf	(gpio_Pin_Write_Logic@pin_config+1)^0,c
  3464   001B72  0E01               	movlw	1
  3465   001B74  6E45               	movwf	gpio_Pin_Write_Logic@logic^0,c
  3466   001B76  EC5A  F00C         	call	_gpio_Pin_Write_Logic	;wreg free
  3467   001B7A                     
  3468                           ;ECUAL_LAYER/key_pad/ecu_keypad.c: 66:             for (counter_colums=0;counter_colums<
      +                          4;counter_colums++){
  3469   001B7A  0E00               	movlw	0
  3470   001B7C  6E56               	movwf	keypad_get_value@counter_colums^0,c
  3471   001B7E                     l4063:
  3472   001B7E  5056               	movf	keypad_get_value@counter_colums^0,w,c
  3473   001B80  244D               	addwf	keypad_get_value@_keypad_obj^0,w,c
  3474   001B82  6E51               	movwf	??_keypad_get_value^0,c
  3475   001B84  0E00               	movlw	0
  3476   001B86  204E               	addwfc	(keypad_get_value@_keypad_obj+1)^0,w,c
  3477   001B88  6E52               	movwf	(??_keypad_get_value+1)^0,c
  3478   001B8A  0E04               	movlw	4
  3479   001B8C  2451               	addwf	??_keypad_get_value^0,w,c
  3480   001B8E  6E43               	movwf	gpio_Pin_Read_Logic@pin_config^0,c
  3481   001B90  0E00               	movlw	0
  3482   001B92  2052               	addwfc	(??_keypad_get_value+1)^0,w,c
  3483   001B94  6E44               	movwf	(gpio_Pin_Read_Logic@pin_config+1)^0,c
  3484   001B96  0E53               	movlw	low keypad_get_value@column_logic_pin
  3485   001B98  6E45               	movwf	gpio_Pin_Read_Logic@logic^0,c
  3486   001B9A  0E00               	movlw	high keypad_get_value@column_logic_pin
  3487   001B9C  6E46               	movwf	(gpio_Pin_Read_Logic@logic+1)^0,c
  3488   001B9E  EC63  F00E         	call	_gpio_Pin_Read_Logic	;wreg free
  3489   001BA2                     
  3490                           ;ECUAL_LAYER/key_pad/ecu_keypad.c: 68:                 if (column_logic_pin==GPIO_HIGH){
  3491   001BA2  0453               	decf	keypad_get_value@column_logic_pin^0,w,c
  3492   001BA4  A4D8               	btfss	status,2,c
  3493   001BA6  EFD7  F00D         	goto	u2771
  3494   001BAA  EFD9  F00D         	goto	u2770
  3495   001BAE                     u2771:
  3496   001BAE  EFF1  F00D         	goto	l4069
  3497   001BB2                     u2770:
  3498   001BB2                     
  3499                           ;ECUAL_LAYER/key_pad/ecu_keypad.c: 69:                     *value=btn_keypad_values[coun
      +                          ter_rows][counter_colums];
  3500   001BB2  5055               	movf	keypad_get_value@counter_rows^0,w,c
  3501   001BB4  0D04               	mullw	4
  3502   001BB6  0E01               	movlw	low _btn_keypad_values
  3503   001BB8  24F3               	addwf	243,w,c
  3504   001BBA  6E51               	movwf	??_keypad_get_value^0,c
  3505   001BBC  0E10               	movlw	high _btn_keypad_values
  3506   001BBE  20F4               	addwfc	prodh,w,c
  3507   001BC0  6E52               	movwf	(??_keypad_get_value+1)^0,c
  3508   001BC2  5056               	movf	keypad_get_value@counter_colums^0,w,c
  3509   001BC4  2651               	addwf	??_keypad_get_value^0,f,c
  3510   001BC6  0E00               	movlw	0
  3511   001BC8  2252               	addwfc	(??_keypad_get_value+1)^0,f,c
  3512   001BCA  C051  FFF6         	movff	??_keypad_get_value,tblptrl
  3513   001BCE  C052  FFF7         	movff	??_keypad_get_value+1,tblptrh
  3514   001BD2                     	if	1	;Program memory is < 0x10000, tblptru is always zero
  3515   001BD2  6AF8               	clrf	tblptru,c
  3516   001BD4                     	endif
  3517   001BD4                     	if	0	;tblptru may be non-zero
  3518   001BD4                     	endif
  3519   001BD4  C04F  FFD9         	movff	keypad_get_value@value,fsr2l
  3520   001BD8  C050  FFDA         	movff	keypad_get_value@value+1,fsr2h
  3521   001BDC  0008               	tblrd		*
  3522   001BDE  CFF5 FFDF          	movff	tablat,indf2
  3523   001BE2                     l4069:
  3524                           
  3525                           ;ECUAL_LAYER/key_pad/ecu_keypad.c: 71:             }
  3526   001BE2  2A56               	incf	keypad_get_value@counter_colums^0,f,c
  3527   001BE4  0E03               	movlw	3
  3528   001BE6  6456               	cpfsgt	keypad_get_value@counter_colums^0,c
  3529   001BE8  EFF8  F00D         	goto	u2781
  3530   001BEC  EFFA  F00D         	goto	u2780
  3531   001BF0                     u2781:
  3532   001BF0  EFBF  F00D         	goto	l4063
  3533   001BF4                     u2780:
  3534   001BF4                     
  3535                           ;ECUAL_LAYER/key_pad/ecu_keypad.c: 73:             }
  3536   001BF4  2A55               	incf	keypad_get_value@counter_rows^0,f,c
  3537   001BF6  0E03               	movlw	3
  3538   001BF8  6455               	cpfsgt	keypad_get_value@counter_rows^0,c
  3539   001BFA  EF01  F00E         	goto	u2791
  3540   001BFE  EF03  F00E         	goto	u2790
  3541   001C02                     u2791:
  3542   001C02  EF9E  F00D         	goto	l4043
  3543   001C06                     u2790:
  3544   001C06                     l343:
  3545   001C06  0012               	return		;funcret
  3546   001C08                     __end_of_keypad_get_value:
  3547                           	callstack 0
  3548                           
  3549 ;; *************** function _gpio_Pin_Read_Logic *****************
  3550 ;; Defined at:
  3551 ;;		line 101 in file "MCAL_LAYER/GPIO/hal_gpio.c"
  3552 ;; Parameters:    Size  Location     Type
  3553 ;;  pin_config      2    2[COMRAM] PTR const struct .
  3554 ;;		 -> Keypad_Obj.pin_keypad_colums(4), Keypad_Obj(8), 
  3555 ;;  logic           2    4[COMRAM] PTR enum E2965
  3556 ;;		 -> keypad_get_value@column_logic_pin(1), 
  3557 ;; Auto vars:     Size  Location     Type
  3558 ;;  ret             1   11[COMRAM] unsigned char 
  3559 ;; Return value:  Size  Location     Type
  3560 ;;                  1    wreg      unsigned char 
  3561 ;; Registers used:
  3562 ;;		wreg, fsr2l, fsr2h, status,2, status,0, prodl, prodh
  3563 ;; Tracked objects:
  3564 ;;		On entry : 0/0
  3565 ;;		On exit  : 0/0
  3566 ;;		Unchanged: 0/0
  3567 ;; Data sizes:     COMRAM   BANK0   BANK1   BANK2   BANK3   BANK4   BANK5   BANK6   BANK7   BANK8   BANK9  BANK10  BANK1
      +1  BANK12  BANK13  BANK14  BANK15
  3568 ;;      Params:         4       0       0       0       0       0       0       0       0       0       0       0       
      +0       0       0       0       0
  3569 ;;      Locals:         1       0       0       0       0       0       0       0       0       0       0       0       
      +0       0       0       0       0
  3570 ;;      Temps:          5       0       0       0       0       0       0       0       0       0       0       0       
      +0       0       0       0       0
  3571 ;;      Totals:        10       0       0       0       0       0       0       0       0       0       0       0       
      +0       0       0       0       0
  3572 ;;Total ram usage:       10 bytes
  3573 ;; Hardware stack levels used: 1
  3574 ;; Hardware stack levels required when called: 3
  3575 ;; This function calls:
  3576 ;;		Nothing
  3577 ;; This function is called by:
  3578 ;;		_keypad_get_value
  3579 ;; This function uses a non-reentrant model
  3580 ;;
  3581                           
  3582                           	psect	text16
  3583   001CC6                     __ptext16:
  3584                           	callstack 0
  3585   001CC6                     _gpio_Pin_Read_Logic:
  3586                           	callstack 26
  3587   001CC6                     
  3588                           ;MCAL_LAYER/GPIO/hal_gpio.c: 102:     Std_ReturnType ret=(Std_ReturnType)0x01;
  3589   001CC6  0E01               	movlw	1
  3590   001CC8  6E4C               	movwf	gpio_Pin_Read_Logic@ret^0,c
  3591   001CCA                     
  3592                           ;MCAL_LAYER/GPIO/hal_gpio.c: 103:     if (((void*)0)==pin_config || ((void*)0)==logic ||
      +                           pin_config->pin > 8 -1){
  3593   001CCA  5043               	movf	gpio_Pin_Read_Logic@pin_config^0,w,c
  3594   001CCC  1044               	iorwf	(gpio_Pin_Read_Logic@pin_config+1)^0,w,c
  3595   001CCE  B4D8               	btfsc	status,2,c
  3596   001CD0  EF6C  F00E         	goto	u2571
  3597   001CD4  EF6E  F00E         	goto	u2570
  3598   001CD8                     u2571:
  3599   001CD8  EF88  F00E         	goto	l3843
  3600   001CDC                     u2570:
  3601   001CDC  5045               	movf	gpio_Pin_Read_Logic@logic^0,w,c
  3602   001CDE  1046               	iorwf	(gpio_Pin_Read_Logic@logic+1)^0,w,c
  3603   001CE0  B4D8               	btfsc	status,2,c
  3604   001CE2  EF75  F00E         	goto	u2581
  3605   001CE6  EF77  F00E         	goto	u2580
  3606   001CEA                     u2581:
  3607   001CEA  EF88  F00E         	goto	l3843
  3608   001CEE                     u2580:
  3609   001CEE  C043  FFD9         	movff	gpio_Pin_Read_Logic@pin_config,fsr2l
  3610   001CF2  C044  FFDA         	movff	gpio_Pin_Read_Logic@pin_config+1,fsr2h
  3611   001CF6  30DF               	rrcf	223,w,c
  3612   001CF8  32E8               	rrcf	wreg,f,c
  3613   001CFA  32E8               	rrcf	wreg,f,c
  3614   001CFC  0B07               	andlw	7
  3615   001CFE  6E47               	movwf	??_gpio_Pin_Read_Logic^0,c
  3616   001D00  0E07               	movlw	7
  3617   001D02  6447               	cpfsgt	??_gpio_Pin_Read_Logic^0,c
  3618   001D04  EF86  F00E         	goto	u2591
  3619   001D08  EF88  F00E         	goto	u2590
  3620   001D0C                     u2591:
  3621   001D0C  EF8C  F00E         	goto	l3845
  3622   001D10                     u2590:
  3623   001D10                     l3843:
  3624                           
  3625                           ;MCAL_LAYER/GPIO/hal_gpio.c: 104:         ret=(Std_ReturnType)0x00;
  3626   001D10  0E00               	movlw	0
  3627   001D12  6E4C               	movwf	gpio_Pin_Read_Logic@ret^0,c
  3628                           
  3629                           ;MCAL_LAYER/GPIO/hal_gpio.c: 105:     }
  3630   001D14  EFBD  F00E         	goto	l3847
  3631   001D18                     l3845:
  3632                           
  3633                           ;MCAL_LAYER/GPIO/hal_gpio.c: 107:         *logic=((*port_registers[pin_config->port] >> 
      +                          pin_config->pin) & (uint8)1);
  3634   001D18  C043  FFD9         	movff	gpio_Pin_Read_Logic@pin_config,fsr2l
  3635   001D1C  C044  FFDA         	movff	gpio_Pin_Read_Logic@pin_config+1,fsr2h
  3636   001D20  30DF               	rrcf	223,w,c
  3637   001D22  32E8               	rrcf	wreg,f,c
  3638   001D24  32E8               	rrcf	wreg,f,c
  3639   001D26  0B07               	andlw	7
  3640   001D28  6E47               	movwf	??_gpio_Pin_Read_Logic^0,c
  3641   001D2A  C043  FFD9         	movff	gpio_Pin_Read_Logic@pin_config,fsr2l
  3642   001D2E  C044  FFDA         	movff	gpio_Pin_Read_Logic@pin_config+1,fsr2h
  3643   001D32  50DF               	movf	223,w,c
  3644   001D34  0B07               	andlw	7
  3645   001D36  6E48               	movwf	(??_gpio_Pin_Read_Logic+1)^0,c
  3646   001D38  5048               	movf	(??_gpio_Pin_Read_Logic+1)^0,w,c
  3647   001D3A  0D02               	mullw	2
  3648   001D3C  0E01               	movlw	low _port_registers
  3649   001D3E  24F3               	addwf	243,w,c
  3650   001D40  6ED9               	movwf	fsr2l,c
  3651   001D42  0E00               	movlw	high _port_registers
  3652   001D44  20F4               	addwfc	prodh,w,c
  3653   001D46  6EDA               	movwf	fsr2h,c
  3654   001D48  CFDE F049          	movff	postinc2,??_gpio_Pin_Read_Logic+2
  3655   001D4C  CFDD F04A          	movff	postdec2,??_gpio_Pin_Read_Logic+3
  3656   001D50  C049  FFD9         	movff	??_gpio_Pin_Read_Logic+2,fsr2l
  3657   001D54  C04A  FFDA         	movff	??_gpio_Pin_Read_Logic+3,fsr2h
  3658   001D58  50DF               	movf	indf2,w,c
  3659   001D5A  6E4B               	movwf	(??_gpio_Pin_Read_Logic+4)^0,c
  3660   001D5C  2A47               	incf	??_gpio_Pin_Read_Logic^0,f,c
  3661   001D5E  EFB3  F00E         	goto	u2604
  3662   001D62                     u2605:
  3663   001D62  90D8               	bcf	status,0,c
  3664   001D64  324B               	rrcf	(??_gpio_Pin_Read_Logic+4)^0,f,c
  3665   001D66                     u2604:
  3666   001D66  2E47               	decfsz	??_gpio_Pin_Read_Logic^0,f,c
  3667   001D68  EFB1  F00E         	goto	u2605
  3668   001D6C  504B               	movf	(??_gpio_Pin_Read_Logic+4)^0,w,c
  3669   001D6E  0B01               	andlw	1
  3670   001D70  C045  FFD9         	movff	gpio_Pin_Read_Logic@logic,fsr2l
  3671   001D74  C046  FFDA         	movff	gpio_Pin_Read_Logic@logic+1,fsr2h
  3672   001D78  6EDF               	movwf	indf2,c
  3673   001D7A                     l3847:
  3674                           
  3675                           ;MCAL_LAYER/GPIO/hal_gpio.c: 109:     return ret;
  3676   001D7A  504C               	movf	gpio_Pin_Read_Logic@ret^0,w,c
  3677   001D7C  0012               	return		;funcret
  3678   001D7E                     __end_of_gpio_Pin_Read_Logic:
  3679                           	callstack 0
  3680                           
  3681 ;; *************** function _dc_motor_stop *****************
  3682 ;; Defined at:
  3683 ;;		line 76 in file "ECUAL_LAYER/DC_Motor/ecu_motor.c"
  3684 ;; Parameters:    Size  Location     Type
  3685 ;;  dc_motor        2   12[COMRAM] PTR struct .
  3686 ;;		 -> DC_Obj(2), 
  3687 ;; Auto vars:     Size  Location     Type
  3688 ;;  ret             1   14[COMRAM] unsigned char 
  3689 ;; Return value:  Size  Location     Type
  3690 ;;                  1    wreg      unsigned char 
  3691 ;; Registers used:
  3692 ;;		wreg, fsr2l, fsr2h, status,2, status,0, prodl, prodh, cstack
  3693 ;; Tracked objects:
  3694 ;;		On entry : 0/0
  3695 ;;		On exit  : 0/0
  3696 ;;		Unchanged: 0/0
  3697 ;; Data sizes:     COMRAM   BANK0   BANK1   BANK2   BANK3   BANK4   BANK5   BANK6   BANK7   BANK8   BANK9  BANK10  BANK1
      +1  BANK12  BANK13  BANK14  BANK15
  3698 ;;      Params:         2       0       0       0       0       0       0       0       0       0       0       0       
      +0       0       0       0       0
  3699 ;;      Locals:         1       0       0       0       0       0       0       0       0       0       0       0       
      +0       0       0       0       0
  3700 ;;      Temps:          0       0       0       0       0       0       0       0       0       0       0       0       
      +0       0       0       0       0
  3701 ;;      Totals:         3       0       0       0       0       0       0       0       0       0       0       0       
      +0       0       0       0       0
  3702 ;;Total ram usage:        3 bytes
  3703 ;; Hardware stack levels used: 1
  3704 ;; Hardware stack levels required when called: 4
  3705 ;; This function calls:
  3706 ;;		_gpio_Pin_Write_Logic
  3707 ;; This function is called by:
  3708 ;;		_main
  3709 ;; This function uses a non-reentrant model
  3710 ;;
  3711                           
  3712                           	psect	text17
  3713   002414                     __ptext17:
  3714                           	callstack 0
  3715   002414                     _dc_motor_stop:
  3716                           	callstack 26
  3717   002414                     
  3718                           ;ECUAL_LAYER/DC_Motor/ecu_motor.c: 78:      if (((void*)0)==dc_motor){
  3719   002414  504D               	movf	dc_motor_stop@dc_motor^0,w,c
  3720   002416  104E               	iorwf	(dc_motor_stop@dc_motor+1)^0,w,c
  3721   002418  A4D8               	btfss	status,2,c
  3722   00241A  EF11  F012         	goto	u2861
  3723   00241E  EF13  F012         	goto	u2860
  3724   002422                     u2861:
  3725   002422  EF15  F012         	goto	l4133
  3726   002426                     u2860:
  3727   002426                     
  3728                           ;ECUAL_LAYER/DC_Motor/ecu_motor.c: 80:      }
  3729   002426  EF29  F012         	goto	l310
  3730   00242A                     l4133:
  3731                           
  3732                           ;ECUAL_LAYER/DC_Motor/ecu_motor.c: 82:         ret=gpio_Pin_Write_Logic(&(dc_motor->dc_m
      +                          otor_pin[0x00U]),GPIO_LOW);
  3733   00242A  C04D  F043         	movff	dc_motor_stop@dc_motor,gpio_Pin_Write_Logic@pin_config
  3734   00242E  C04E  F044         	movff	dc_motor_stop@dc_motor+1,gpio_Pin_Write_Logic@pin_config+1
  3735   002432  0E00               	movlw	0
  3736   002434  6E45               	movwf	gpio_Pin_Write_Logic@logic^0,c
  3737   002436  EC5A  F00C         	call	_gpio_Pin_Write_Logic	;wreg free
  3738   00243A  6E4F               	movwf	dc_motor_stop@ret^0,c
  3739                           
  3740                           ;ECUAL_LAYER/DC_Motor/ecu_motor.c: 83:         ret=gpio_Pin_Write_Logic(&(dc_motor->dc_m
      +                          otor_pin[0x01U]),GPIO_LOW);
  3741   00243C  0E01               	movlw	1
  3742   00243E  244D               	addwf	dc_motor_stop@dc_motor^0,w,c
  3743   002440  6E43               	movwf	gpio_Pin_Write_Logic@pin_config^0,c
  3744   002442  0E00               	movlw	0
  3745   002444  204E               	addwfc	(dc_motor_stop@dc_motor+1)^0,w,c
  3746   002446  6E44               	movwf	(gpio_Pin_Write_Logic@pin_config+1)^0,c
  3747   002448  0E00               	movlw	0
  3748   00244A  6E45               	movwf	gpio_Pin_Write_Logic@logic^0,c
  3749   00244C  EC5A  F00C         	call	_gpio_Pin_Write_Logic	;wreg free
  3750   002450  6E4F               	movwf	dc_motor_stop@ret^0,c
  3751   002452                     l310:
  3752   002452  0012               	return		;funcret
  3753   002454                     __end_of_dc_motor_stop:
  3754                           	callstack 0
  3755                           
  3756 ;; *************** function _dc_motor_move_right *****************
  3757 ;; Defined at:
  3758 ;;		line 38 in file "ECUAL_LAYER/DC_Motor/ecu_motor.c"
  3759 ;; Parameters:    Size  Location     Type
  3760 ;;  dc_motor        2   12[COMRAM] PTR struct .
  3761 ;;		 -> DC_Obj(2), 
  3762 ;; Auto vars:     Size  Location     Type
  3763 ;;  ret             1   14[COMRAM] unsigned char 
  3764 ;; Return value:  Size  Location     Type
  3765 ;;                  1    wreg      unsigned char 
  3766 ;; Registers used:
  3767 ;;		wreg, fsr2l, fsr2h, status,2, status,0, prodl, prodh, cstack
  3768 ;; Tracked objects:
  3769 ;;		On entry : 0/0
  3770 ;;		On exit  : 0/0
  3771 ;;		Unchanged: 0/0
  3772 ;; Data sizes:     COMRAM   BANK0   BANK1   BANK2   BANK3   BANK4   BANK5   BANK6   BANK7   BANK8   BANK9  BANK10  BANK1
      +1  BANK12  BANK13  BANK14  BANK15
  3773 ;;      Params:         2       0       0       0       0       0       0       0       0       0       0       0       
      +0       0       0       0       0
  3774 ;;      Locals:         1       0       0       0       0       0       0       0       0       0       0       0       
      +0       0       0       0       0
  3775 ;;      Temps:          0       0       0       0       0       0       0       0       0       0       0       0       
      +0       0       0       0       0
  3776 ;;      Totals:         3       0       0       0       0       0       0       0       0       0       0       0       
      +0       0       0       0       0
  3777 ;;Total ram usage:        3 bytes
  3778 ;; Hardware stack levels used: 1
  3779 ;; Hardware stack levels required when called: 4
  3780 ;; This function calls:
  3781 ;;		_gpio_Pin_Write_Logic
  3782 ;; This function is called by:
  3783 ;;		_main
  3784 ;; This function uses a non-reentrant model
  3785 ;;
  3786                           
  3787                           	psect	text18
  3788   002454                     __ptext18:
  3789                           	callstack 0
  3790   002454                     _dc_motor_move_right:
  3791                           	callstack 26
  3792   002454                     
  3793                           ;ECUAL_LAYER/DC_Motor/ecu_motor.c: 40:      if (((void*)0)==dc_motor){
  3794   002454  504D               	movf	dc_motor_move_right@dc_motor^0,w,c
  3795   002456  104E               	iorwf	(dc_motor_move_right@dc_motor+1)^0,w,c
  3796   002458  A4D8               	btfss	status,2,c
  3797   00245A  EF31  F012         	goto	u2841
  3798   00245E  EF33  F012         	goto	u2840
  3799   002462                     u2841:
  3800   002462  EF35  F012         	goto	l4113
  3801   002466                     u2840:
  3802   002466                     
  3803                           ;ECUAL_LAYER/DC_Motor/ecu_motor.c: 42:      }
  3804   002466  EF49  F012         	goto	l300
  3805   00246A                     l4113:
  3806                           
  3807                           ;ECUAL_LAYER/DC_Motor/ecu_motor.c: 44:          ret=gpio_Pin_Write_Logic(&(dc_motor->dc_
      +                          motor_pin[0x00U]),GPIO_HIGH);
  3808   00246A  C04D  F043         	movff	dc_motor_move_right@dc_motor,gpio_Pin_Write_Logic@pin_config
  3809   00246E  C04E  F044         	movff	dc_motor_move_right@dc_motor+1,gpio_Pin_Write_Logic@pin_config+1
  3810   002472  0E01               	movlw	1
  3811   002474  6E45               	movwf	gpio_Pin_Write_Logic@logic^0,c
  3812   002476  EC5A  F00C         	call	_gpio_Pin_Write_Logic	;wreg free
  3813   00247A  6E4F               	movwf	dc_motor_move_right@ret^0,c
  3814                           
  3815                           ;ECUAL_LAYER/DC_Motor/ecu_motor.c: 45:          ret=gpio_Pin_Write_Logic(&(dc_motor->dc_
      +                          motor_pin[0x01U]),GPIO_LOW);
  3816   00247C  0E01               	movlw	1
  3817   00247E  244D               	addwf	dc_motor_move_right@dc_motor^0,w,c
  3818   002480  6E43               	movwf	gpio_Pin_Write_Logic@pin_config^0,c
  3819   002482  0E00               	movlw	0
  3820   002484  204E               	addwfc	(dc_motor_move_right@dc_motor+1)^0,w,c
  3821   002486  6E44               	movwf	(gpio_Pin_Write_Logic@pin_config+1)^0,c
  3822   002488  0E00               	movlw	0
  3823   00248A  6E45               	movwf	gpio_Pin_Write_Logic@logic^0,c
  3824   00248C  EC5A  F00C         	call	_gpio_Pin_Write_Logic	;wreg free
  3825   002490  6E4F               	movwf	dc_motor_move_right@ret^0,c
  3826   002492                     l300:
  3827   002492  0012               	return		;funcret
  3828   002494                     __end_of_dc_motor_move_right:
  3829                           	callstack 0
  3830                           
  3831 ;; *************** function _dc_motor_move_left *****************
  3832 ;; Defined at:
  3833 ;;		line 57 in file "ECUAL_LAYER/DC_Motor/ecu_motor.c"
  3834 ;; Parameters:    Size  Location     Type
  3835 ;;  dc_motor        2   12[COMRAM] PTR struct .
  3836 ;;		 -> DC_Obj(2), 
  3837 ;; Auto vars:     Size  Location     Type
  3838 ;;  ret             1   14[COMRAM] unsigned char 
  3839 ;; Return value:  Size  Location     Type
  3840 ;;                  1    wreg      unsigned char 
  3841 ;; Registers used:
  3842 ;;		wreg, fsr2l, fsr2h, status,2, status,0, prodl, prodh, cstack
  3843 ;; Tracked objects:
  3844 ;;		On entry : 0/0
  3845 ;;		On exit  : 0/0
  3846 ;;		Unchanged: 0/0
  3847 ;; Data sizes:     COMRAM   BANK0   BANK1   BANK2   BANK3   BANK4   BANK5   BANK6   BANK7   BANK8   BANK9  BANK10  BANK1
      +1  BANK12  BANK13  BANK14  BANK15
  3848 ;;      Params:         2       0       0       0       0       0       0       0       0       0       0       0       
      +0       0       0       0       0
  3849 ;;      Locals:         1       0       0       0       0       0       0       0       0       0       0       0       
      +0       0       0       0       0
  3850 ;;      Temps:          0       0       0       0       0       0       0       0       0       0       0       0       
      +0       0       0       0       0
  3851 ;;      Totals:         3       0       0       0       0       0       0       0       0       0       0       0       
      +0       0       0       0       0
  3852 ;;Total ram usage:        3 bytes
  3853 ;; Hardware stack levels used: 1
  3854 ;; Hardware stack levels required when called: 4
  3855 ;; This function calls:
  3856 ;;		_gpio_Pin_Write_Logic
  3857 ;; This function is called by:
  3858 ;;		_main
  3859 ;; This function uses a non-reentrant model
  3860 ;;
  3861                           
  3862                           	psect	text19
  3863   002494                     __ptext19:
  3864                           	callstack 0
  3865   002494                     _dc_motor_move_left:
  3866                           	callstack 26
  3867   002494                     
  3868                           ;ECUAL_LAYER/DC_Motor/ecu_motor.c: 59:      if (((void*)0)==dc_motor){
  3869   002494  504D               	movf	dc_motor_move_left@dc_motor^0,w,c
  3870   002496  104E               	iorwf	(dc_motor_move_left@dc_motor+1)^0,w,c
  3871   002498  A4D8               	btfss	status,2,c
  3872   00249A  EF51  F012         	goto	u2851
  3873   00249E  EF53  F012         	goto	u2850
  3874   0024A2                     u2851:
  3875   0024A2  EF55  F012         	goto	l4123
  3876   0024A6                     u2850:
  3877   0024A6                     
  3878                           ;ECUAL_LAYER/DC_Motor/ecu_motor.c: 61:      }
  3879   0024A6  EF69  F012         	goto	l305
  3880   0024AA                     l4123:
  3881                           
  3882                           ;ECUAL_LAYER/DC_Motor/ecu_motor.c: 63:         ret=gpio_Pin_Write_Logic(&(dc_motor->dc_m
      +                          otor_pin[0x00U]),GPIO_LOW);
  3883   0024AA  C04D  F043         	movff	dc_motor_move_left@dc_motor,gpio_Pin_Write_Logic@pin_config
  3884   0024AE  C04E  F044         	movff	dc_motor_move_left@dc_motor+1,gpio_Pin_Write_Logic@pin_config+1
  3885   0024B2  0E00               	movlw	0
  3886   0024B4  6E45               	movwf	gpio_Pin_Write_Logic@logic^0,c
  3887   0024B6  EC5A  F00C         	call	_gpio_Pin_Write_Logic	;wreg free
  3888   0024BA  6E4F               	movwf	dc_motor_move_left@ret^0,c
  3889                           
  3890                           ;ECUAL_LAYER/DC_Motor/ecu_motor.c: 64:         ret=gpio_Pin_Write_Logic(&(dc_motor->dc_m
      +                          otor_pin[0x01U]),GPIO_HIGH);
  3891   0024BC  0E01               	movlw	1
  3892   0024BE  244D               	addwf	dc_motor_move_left@dc_motor^0,w,c
  3893   0024C0  6E43               	movwf	gpio_Pin_Write_Logic@pin_config^0,c
  3894   0024C2  0E00               	movlw	0
  3895   0024C4  204E               	addwfc	(dc_motor_move_left@dc_motor+1)^0,w,c
  3896   0024C6  6E44               	movwf	(gpio_Pin_Write_Logic@pin_config+1)^0,c
  3897   0024C8  0E01               	movlw	1
  3898   0024CA  6E45               	movwf	gpio_Pin_Write_Logic@logic^0,c
  3899   0024CC  EC5A  F00C         	call	_gpio_Pin_Write_Logic	;wreg free
  3900   0024D0  6E4F               	movwf	dc_motor_move_left@ret^0,c
  3901   0024D2                     l305:
  3902   0024D2  0012               	return		;funcret
  3903   0024D4                     __end_of_dc_motor_move_left:
  3904                           	callstack 0
  3905                           
  3906 ;; *************** function _dc_motor_initialize *****************
  3907 ;; Defined at:
  3908 ;;		line 19 in file "ECUAL_LAYER/DC_Motor/ecu_motor.c"
  3909 ;; Parameters:    Size  Location     Type
  3910 ;;  dc_motor        2   16[COMRAM] PTR struct .
  3911 ;;		 -> DC_Obj(2), 
  3912 ;; Auto vars:     Size  Location     Type
  3913 ;;  ret             1   18[COMRAM] unsigned char 
  3914 ;; Return value:  Size  Location     Type
  3915 ;;                  1    wreg      unsigned char 
  3916 ;; Registers used:
  3917 ;;		wreg, fsr2l, fsr2h, status,2, status,0, prodl, prodh, cstack
  3918 ;; Tracked objects:
  3919 ;;		On entry : 0/0
  3920 ;;		On exit  : 0/0
  3921 ;;		Unchanged: 0/0
  3922 ;; Data sizes:     COMRAM   BANK0   BANK1   BANK2   BANK3   BANK4   BANK5   BANK6   BANK7   BANK8   BANK9  BANK10  BANK1
      +1  BANK12  BANK13  BANK14  BANK15
  3923 ;;      Params:         2       0       0       0       0       0       0       0       0       0       0       0       
      +0       0       0       0       0
  3924 ;;      Locals:         1       0       0       0       0       0       0       0       0       0       0       0       
      +0       0       0       0       0
  3925 ;;      Temps:          0       0       0       0       0       0       0       0       0       0       0       0       
      +0       0       0       0       0
  3926 ;;      Totals:         3       0       0       0       0       0       0       0       0       0       0       0       
      +0       0       0       0       0
  3927 ;;Total ram usage:        3 bytes
  3928 ;; Hardware stack levels used: 1
  3929 ;; Hardware stack levels required when called: 5
  3930 ;; This function calls:
  3931 ;;		_gpio_Pin_Intialize
  3932 ;; This function is called by:
  3933 ;;		_main
  3934 ;; This function uses a non-reentrant model
  3935 ;;
  3936                           
  3937                           	psect	text20
  3938   00254A                     __ptext20:
  3939                           	callstack 0
  3940   00254A                     _dc_motor_initialize:
  3941                           	callstack 25
  3942   00254A                     
  3943                           ;ECUAL_LAYER/DC_Motor/ecu_motor.c: 21:      if (((void*)0)==dc_motor){
  3944   00254A  5051               	movf	dc_motor_initialize@dc_motor^0,w,c
  3945   00254C  1052               	iorwf	(dc_motor_initialize@dc_motor+1)^0,w,c
  3946   00254E  A4D8               	btfss	status,2,c
  3947   002550  EFAC  F012         	goto	u2681
  3948   002554  EFAE  F012         	goto	u2680
  3949   002558                     u2681:
  3950   002558  EFB0  F012         	goto	l3971
  3951   00255C                     u2680:
  3952   00255C                     
  3953                           ;ECUAL_LAYER/DC_Motor/ecu_motor.c: 23:      }
  3954   00255C  EFC0  F012         	goto	l295
  3955   002560                     l3971:
  3956                           
  3957                           ;ECUAL_LAYER/DC_Motor/ecu_motor.c: 25:            ret=gpio_Pin_Intialize(&(dc_motor->dc_
      +                          motor_pin[0x00U]));
  3958   002560  C051  F04D         	movff	dc_motor_initialize@dc_motor,gpio_Pin_Intialize@pin_config
  3959   002564  C052  F04E         	movff	dc_motor_initialize@dc_motor+1,gpio_Pin_Intialize@pin_config+1
  3960   002568  EC3D  F010         	call	_gpio_Pin_Intialize	;wreg free
  3961   00256C  6E53               	movwf	dc_motor_initialize@ret^0,c
  3962                           
  3963                           ;ECUAL_LAYER/DC_Motor/ecu_motor.c: 26:            ret=gpio_Pin_Intialize(&(dc_motor->dc_
      +                          motor_pin[0x01U]));
  3964   00256E  0E01               	movlw	1
  3965   002570  2451               	addwf	dc_motor_initialize@dc_motor^0,w,c
  3966   002572  6E4D               	movwf	gpio_Pin_Intialize@pin_config^0,c
  3967   002574  0E00               	movlw	0
  3968   002576  2052               	addwfc	(dc_motor_initialize@dc_motor+1)^0,w,c
  3969   002578  6E4E               	movwf	(gpio_Pin_Intialize@pin_config+1)^0,c
  3970   00257A  EC3D  F010         	call	_gpio_Pin_Intialize	;wreg free
  3971   00257E  6E53               	movwf	dc_motor_initialize@ret^0,c
  3972   002580                     l295:
  3973   002580  0012               	return		;funcret
  3974   002582                     __end_of_dc_motor_initialize:
  3975                           	callstack 0
  3976                           
  3977 ;; *************** function _gpio_Pin_Intialize *****************
  3978 ;; Defined at:
  3979 ;;		line 141 in file "MCAL_LAYER/GPIO/hal_gpio.c"
  3980 ;; Parameters:    Size  Location     Type
  3981 ;;  pin_config      2   12[COMRAM] PTR const struct .
  3982 ;;		 -> Lcd_Obj.lcd_data(4), Lcd_Obj(6), DC_Obj.dc_motor_pin(2), DC_Obj(2), 
  3983 ;;		 -> Keypad_Obj.pin_keypad_rows(4), Keypad_Obj(8), 
  3984 ;; Auto vars:     Size  Location     Type
  3985 ;;  ret             1   15[COMRAM] unsigned char 
  3986 ;; Return value:  Size  Location     Type
  3987 ;;                  1    wreg      unsigned char 
  3988 ;; Registers used:
  3989 ;;		wreg, fsr2l, fsr2h, status,2, status,0, prodl, prodh, cstack
  3990 ;; Tracked objects:
  3991 ;;		On entry : 0/0
  3992 ;;		On exit  : 0/0
  3993 ;;		Unchanged: 0/0
  3994 ;; Data sizes:     COMRAM   BANK0   BANK1   BANK2   BANK3   BANK4   BANK5   BANK6   BANK7   BANK8   BANK9  BANK10  BANK1
      +1  BANK12  BANK13  BANK14  BANK15
  3995 ;;      Params:         2       0       0       0       0       0       0       0       0       0       0       0       
      +0       0       0       0       0
  3996 ;;      Locals:         1       0       0       0       0       0       0       0       0       0       0       0       
      +0       0       0       0       0
  3997 ;;      Temps:          1       0       0       0       0       0       0       0       0       0       0       0       
      +0       0       0       0       0
  3998 ;;      Totals:         4       0       0       0       0       0       0       0       0       0       0       0       
      +0       0       0       0       0
  3999 ;;Total ram usage:        4 bytes
  4000 ;; Hardware stack levels used: 1
  4001 ;; Hardware stack levels required when called: 4
  4002 ;; This function calls:
  4003 ;;		_gpio_Pin_Derction_Intialize
  4004 ;;		_gpio_Pin_Write_Logic
  4005 ;; This function is called by:
  4006 ;;		_lcd_4bit_initialize
  4007 ;;		_dc_motor_initialize
  4008 ;;		_keypad_initialize
  4009 ;;		_lcd_8bit_initialize
  4010 ;; This function uses a non-reentrant model
  4011 ;;
  4012                           
  4013                           	psect	text21
  4014   00207A                     __ptext21:
  4015                           	callstack 0
  4016   00207A                     _gpio_Pin_Intialize:
  4017                           	callstack 25
  4018   00207A                     
  4019                           ;MCAL_LAYER/GPIO/hal_gpio.c: 143:     if (((void*)0)==pin_config || pin_config->pin > 8 
      +                          -1){
  4020   00207A  504D               	movf	gpio_Pin_Intialize@pin_config^0,w,c
  4021   00207C  104E               	iorwf	(gpio_Pin_Intialize@pin_config+1)^0,w,c
  4022   00207E  B4D8               	btfsc	status,2,c
  4023   002080  EF44  F010         	goto	u2511
  4024   002084  EF46  F010         	goto	u2510
  4025   002088                     u2511:
  4026   002088  EF57  F010         	goto	l3785
  4027   00208C                     u2510:
  4028   00208C  C04D  FFD9         	movff	gpio_Pin_Intialize@pin_config,fsr2l
  4029   002090  C04E  FFDA         	movff	gpio_Pin_Intialize@pin_config+1,fsr2h
  4030   002094  30DF               	rrcf	223,w,c
  4031   002096  32E8               	rrcf	wreg,f,c
  4032   002098  32E8               	rrcf	wreg,f,c
  4033   00209A  0B07               	andlw	7
  4034   00209C  6E4F               	movwf	??_gpio_Pin_Intialize^0,c
  4035   00209E  0E07               	movlw	7
  4036   0020A0  644F               	cpfsgt	??_gpio_Pin_Intialize^0,c
  4037   0020A2  EF55  F010         	goto	u2521
  4038   0020A6  EF57  F010         	goto	u2520
  4039   0020AA                     u2521:
  4040   0020AA  EF57  F010         	goto	l3787
  4041   0020AE                     u2520:
  4042   0020AE                     l3785:
  4043   0020AE                     l3787:
  4044   0020AE  C04D  F043         	movff	gpio_Pin_Intialize@pin_config,gpio_Pin_Derction_Intialize@pin_config
  4045   0020B2  C04E  F044         	movff	gpio_Pin_Intialize@pin_config+1,gpio_Pin_Derction_Intialize@pin_config+1
  4046   0020B6  ECB8  F00B         	call	_gpio_Pin_Derction_Intialize	;wreg free
  4047   0020BA                     
  4048                           ;MCAL_LAYER/GPIO/hal_gpio.c: 147:     ret=gpio_Pin_Write_Logic(pin_config,pin_config->lo
      +                          gic);
  4049   0020BA  C04D  F043         	movff	gpio_Pin_Intialize@pin_config,gpio_Pin_Write_Logic@pin_config
  4050   0020BE  C04E  F044         	movff	gpio_Pin_Intialize@pin_config+1,gpio_Pin_Write_Logic@pin_config+1
  4051   0020C2  C04D  FFD9         	movff	gpio_Pin_Intialize@pin_config,fsr2l
  4052   0020C6  C04E  FFDA         	movff	gpio_Pin_Intialize@pin_config+1,fsr2h
  4053   0020CA  0E00               	movlw	0
  4054   0020CC  BEDF               	btfsc	indf2,7,c
  4055   0020CE  0E01               	movlw	1
  4056   0020D0  6E45               	movwf	gpio_Pin_Write_Logic@logic^0,c
  4057   0020D2  EC5A  F00C         	call	_gpio_Pin_Write_Logic	;wreg free
  4058   0020D6  6E50               	movwf	gpio_Pin_Intialize@ret^0,c
  4059                           
  4060                           ;MCAL_LAYER/GPIO/hal_gpio.c: 149:     return ret;
  4061   0020D8  5050               	movf	gpio_Pin_Intialize@ret^0,w,c
  4062   0020DA  0012               	return		;funcret
  4063   0020DC                     __end_of_gpio_Pin_Intialize:
  4064                           	callstack 0
  4065                           
  4066 ;; *************** function _gpio_Pin_Write_Logic *****************
  4067 ;; Defined at:
  4068 ;;		line 75 in file "MCAL_LAYER/GPIO/hal_gpio.c"
  4069 ;; Parameters:    Size  Location     Type
  4070 ;;  pin_config      2    2[COMRAM] PTR const struct .
  4071 ;;		 -> Lcd_Obj.lcd_data(4), Lcd_Obj(6), DC_Obj.dc_motor_pin(2), DC_Obj(2), 
  4072 ;;		 -> Keypad_Obj.pin_keypad_rows(4), Keypad_Obj(8), 
  4073 ;;  logic           1    4[COMRAM] enum E2965
  4074 ;; Auto vars:     Size  Location     Type
  4075 ;;  ret             1   11[COMRAM] unsigned char 
  4076 ;; Return value:  Size  Location     Type
  4077 ;;                  1    wreg      unsigned char 
  4078 ;; Registers used:
  4079 ;;		wreg, fsr2l, fsr2h, status,2, status,0, prodl, prodh
  4080 ;; Tracked objects:
  4081 ;;		On entry : 0/0
  4082 ;;		On exit  : 0/0
  4083 ;;		Unchanged: 0/0
  4084 ;; Data sizes:     COMRAM   BANK0   BANK1   BANK2   BANK3   BANK4   BANK5   BANK6   BANK7   BANK8   BANK9  BANK10  BANK1
      +1  BANK12  BANK13  BANK14  BANK15
  4085 ;;      Params:         3       0       0       0       0       0       0       0       0       0       0       0       
      +0       0       0       0       0
  4086 ;;      Locals:         1       0       0       0       0       0       0       0       0       0       0       0       
      +0       0       0       0       0
  4087 ;;      Temps:          6       0       0       0       0       0       0       0       0       0       0       0       
      +0       0       0       0       0
  4088 ;;      Totals:        10       0       0       0       0       0       0       0       0       0       0       0       
      +0       0       0       0       0
  4089 ;;Total ram usage:       10 bytes
  4090 ;; Hardware stack levels used: 1
  4091 ;; Hardware stack levels required when called: 3
  4092 ;; This function calls:
  4093 ;;		Nothing
  4094 ;; This function is called by:
  4095 ;;		_lcd_4bit_send_command
  4096 ;;		_lcd_4bit_send_char_data
  4097 ;;		_send_data_4bit_mode
  4098 ;;		_send_4bit_mode_enable
  4099 ;;		_dc_motor_move_right
  4100 ;;		_dc_motor_move_left
  4101 ;;		_dc_motor_stop
  4102 ;;		_keypad_get_value
  4103 ;;		_gpio_Pin_Intialize
  4104 ;;		_lcd_8bit_send_command
  4105 ;;		_lcd_8bit_send_char_data
  4106 ;;		_send_8bit_mode_enable
  4107 ;; This function uses a non-reentrant model
  4108 ;;
  4109                           
  4110                           	psect	text22
  4111   0018B4                     __ptext22:
  4112                           	callstack 0
  4113   0018B4                     _gpio_Pin_Write_Logic:
  4114                           	callstack 24
  4115   0018B4                     
  4116                           ;MCAL_LAYER/GPIO/hal_gpio.c: 76:     Std_ReturnType ret=(Std_ReturnType)0x01;
  4117   0018B4  0E01               	movlw	1
  4118   0018B6  6E4C               	movwf	gpio_Pin_Write_Logic@ret^0,c
  4119   0018B8                     
  4120                           ;MCAL_LAYER/GPIO/hal_gpio.c: 77:     if (((void*)0)==pin_config || pin_config->pin > 8 -
      +                          1 ){
  4121   0018B8  5043               	movf	gpio_Pin_Write_Logic@pin_config^0,w,c
  4122   0018BA  1044               	iorwf	(gpio_Pin_Write_Logic@pin_config+1)^0,w,c
  4123   0018BC  B4D8               	btfsc	status,2,c
  4124   0018BE  EF63  F00C         	goto	u2261
  4125   0018C2  EF65  F00C         	goto	u2260
  4126   0018C6                     u2261:
  4127   0018C6  EF76  F00C         	goto	l3601
  4128   0018CA                     u2260:
  4129   0018CA  C043  FFD9         	movff	gpio_Pin_Write_Logic@pin_config,fsr2l
  4130   0018CE  C044  FFDA         	movff	gpio_Pin_Write_Logic@pin_config+1,fsr2h
  4131   0018D2  30DF               	rrcf	223,w,c
  4132   0018D4  32E8               	rrcf	wreg,f,c
  4133   0018D6  32E8               	rrcf	wreg,f,c
  4134   0018D8  0B07               	andlw	7
  4135   0018DA  6E46               	movwf	??_gpio_Pin_Write_Logic^0,c
  4136   0018DC  0E07               	movlw	7
  4137   0018DE  6446               	cpfsgt	??_gpio_Pin_Write_Logic^0,c
  4138   0018E0  EF74  F00C         	goto	u2271
  4139   0018E4  EF76  F00C         	goto	u2270
  4140   0018E8                     u2271:
  4141   0018E8  EFD9  F00C         	goto	l3609
  4142   0018EC                     u2270:
  4143   0018EC                     l3601:
  4144                           
  4145                           ;MCAL_LAYER/GPIO/hal_gpio.c: 78:         ret=(Std_ReturnType)0x00;
  4146   0018EC  0E00               	movlw	0
  4147   0018EE  6E4C               	movwf	gpio_Pin_Write_Logic@ret^0,c
  4148   0018F0  EFD9  F00C         	goto	l3609
  4149   0018F4                     l3603:
  4150                           
  4151                           ;MCAL_LAYER/GPIO/hal_gpio.c: 82:             (*lat_registers[pin_config->port] &=~((uint
      +                          8)1 << pin_config->pin));
  4152   0018F4  C043  FFD9         	movff	gpio_Pin_Write_Logic@pin_config,fsr2l
  4153   0018F8  C044  FFDA         	movff	gpio_Pin_Write_Logic@pin_config+1,fsr2h
  4154   0018FC  30DF               	rrcf	223,w,c
  4155   0018FE  32E8               	rrcf	wreg,f,c
  4156   001900  32E8               	rrcf	wreg,f,c
  4157   001902  0B07               	andlw	7
  4158   001904  6E46               	movwf	??_gpio_Pin_Write_Logic^0,c
  4159   001906  0E01               	movlw	1
  4160   001908  6E47               	movwf	(??_gpio_Pin_Write_Logic+1)^0,c
  4161   00190A  2A46               	incf	??_gpio_Pin_Write_Logic^0,f,c
  4162   00190C  EF8A  F00C         	goto	u2284
  4163   001910                     u2285:
  4164   001910  90D8               	bcf	status,0,c
  4165   001912  3647               	rlcf	(??_gpio_Pin_Write_Logic+1)^0,f,c
  4166   001914                     u2284:
  4167   001914  2E46               	decfsz	??_gpio_Pin_Write_Logic^0,f,c
  4168   001916  EF88  F00C         	goto	u2285
  4169   00191A  5047               	movf	(??_gpio_Pin_Write_Logic+1)^0,w,c
  4170   00191C  0AFF               	xorlw	255
  4171   00191E  6E48               	movwf	(??_gpio_Pin_Write_Logic+2)^0,c
  4172   001920  C043  FFD9         	movff	gpio_Pin_Write_Logic@pin_config,fsr2l
  4173   001924  C044  FFDA         	movff	gpio_Pin_Write_Logic@pin_config+1,fsr2h
  4174   001928  50DF               	movf	223,w,c
  4175   00192A  0B07               	andlw	7
  4176   00192C  6E49               	movwf	(??_gpio_Pin_Write_Logic+3)^0,c
  4177   00192E  5049               	movf	(??_gpio_Pin_Write_Logic+3)^0,w,c
  4178   001930  0D02               	mullw	2
  4179   001932  0E0B               	movlw	low _lat_registers
  4180   001934  24F3               	addwf	243,w,c
  4181   001936  6ED9               	movwf	fsr2l,c
  4182   001938  0E00               	movlw	high _lat_registers
  4183   00193A  20F4               	addwfc	prodh,w,c
  4184   00193C  6EDA               	movwf	fsr2h,c
  4185   00193E  CFDE F04A          	movff	postinc2,??_gpio_Pin_Write_Logic+4
  4186   001942  CFDD F04B          	movff	postdec2,??_gpio_Pin_Write_Logic+5
  4187   001946  C04A  FFD9         	movff	??_gpio_Pin_Write_Logic+4,fsr2l
  4188   00194A  C04B  FFDA         	movff	??_gpio_Pin_Write_Logic+5,fsr2h
  4189   00194E  5048               	movf	(??_gpio_Pin_Write_Logic+2)^0,w,c
  4190   001950  16DF               	andwf	indf2,f,c
  4191                           
  4192                           ;MCAL_LAYER/GPIO/hal_gpio.c: 83:             break;
  4193   001952  EFEE  F00C         	goto	l3611
  4194   001956                     l3605:
  4195                           
  4196                           ;MCAL_LAYER/GPIO/hal_gpio.c: 85:             (*lat_registers[pin_config->port] |=((uint8
      +                          )1 << pin_config->pin));
  4197   001956  C043  FFD9         	movff	gpio_Pin_Write_Logic@pin_config,fsr2l
  4198   00195A  C044  FFDA         	movff	gpio_Pin_Write_Logic@pin_config+1,fsr2h
  4199   00195E  30DF               	rrcf	223,w,c
  4200   001960  32E8               	rrcf	wreg,f,c
  4201   001962  32E8               	rrcf	wreg,f,c
  4202   001964  0B07               	andlw	7
  4203   001966  6E46               	movwf	??_gpio_Pin_Write_Logic^0,c
  4204   001968  0E01               	movlw	1
  4205   00196A  6E47               	movwf	(??_gpio_Pin_Write_Logic+1)^0,c
  4206   00196C  2A46               	incf	??_gpio_Pin_Write_Logic^0,f,c
  4207   00196E  EFBB  F00C         	goto	u2294
  4208   001972                     u2295:
  4209   001972  90D8               	bcf	status,0,c
  4210   001974  3647               	rlcf	(??_gpio_Pin_Write_Logic+1)^0,f,c
  4211   001976                     u2294:
  4212   001976  2E46               	decfsz	??_gpio_Pin_Write_Logic^0,f,c
  4213   001978  EFB9  F00C         	goto	u2295
  4214   00197C  C043  FFD9         	movff	gpio_Pin_Write_Logic@pin_config,fsr2l
  4215   001980  C044  FFDA         	movff	gpio_Pin_Write_Logic@pin_config+1,fsr2h
  4216   001984  50DF               	movf	223,w,c
  4217   001986  0B07               	andlw	7
  4218   001988  6E48               	movwf	(??_gpio_Pin_Write_Logic+2)^0,c
  4219   00198A  5048               	movf	(??_gpio_Pin_Write_Logic+2)^0,w,c
  4220   00198C  0D02               	mullw	2
  4221   00198E  0E0B               	movlw	low _lat_registers
  4222   001990  24F3               	addwf	243,w,c
  4223   001992  6ED9               	movwf	fsr2l,c
  4224   001994  0E00               	movlw	high _lat_registers
  4225   001996  20F4               	addwfc	prodh,w,c
  4226   001998  6EDA               	movwf	fsr2h,c
  4227   00199A  CFDE F049          	movff	postinc2,??_gpio_Pin_Write_Logic+3
  4228   00199E  CFDD F04A          	movff	postdec2,??_gpio_Pin_Write_Logic+4
  4229   0019A2  C049  FFD9         	movff	??_gpio_Pin_Write_Logic+3,fsr2l
  4230   0019A6  C04A  FFDA         	movff	??_gpio_Pin_Write_Logic+4,fsr2h
  4231   0019AA  5047               	movf	(??_gpio_Pin_Write_Logic+1)^0,w,c
  4232   0019AC  12DF               	iorwf	indf2,f,c
  4233                           
  4234                           ;MCAL_LAYER/GPIO/hal_gpio.c: 86:             break;
  4235   0019AE  EFEE  F00C         	goto	l3611
  4236   0019B2                     l3609:
  4237   0019B2  5045               	movf	gpio_Pin_Write_Logic@logic^0,w,c
  4238   0019B4  6E46               	movwf	??_gpio_Pin_Write_Logic^0,c
  4239   0019B6  6A47               	clrf	(??_gpio_Pin_Write_Logic+1)^0,c
  4240                           
  4241                           ; Switch on 2 bytes has been partitioned into a top level switch of size 1, and 1 sub-sw
      +                          itches
  4242                           ; Switch size 1, requested type "simple"
  4243                           ; Number of cases is 1, Range of values is 0 to 0
  4244                           ; switch strategies available:
  4245                           ; Name         Instructions Cycles
  4246                           ; simple_byte            4     3 (average)
  4247                           ;	Chosen strategy is simple_byte
  4248   0019B8  5047               	movf	(??_gpio_Pin_Write_Logic+1)^0,w,c
  4249   0019BA  0A00               	xorlw	0	; case 0
  4250   0019BC  B4D8               	btfsc	status,2,c
  4251   0019BE  EFE3  F00C         	goto	l4625
  4252   0019C2  EFEE  F00C         	goto	l3611
  4253   0019C6                     l4625:
  4254                           
  4255                           ; Switch size 1, requested type "simple"
  4256                           ; Number of cases is 2, Range of values is 0 to 1
  4257                           ; switch strategies available:
  4258                           ; Name         Instructions Cycles
  4259                           ; simple_byte            7     4 (average)
  4260                           ;	Chosen strategy is simple_byte
  4261   0019C6  5046               	movf	??_gpio_Pin_Write_Logic^0,w,c
  4262   0019C8  0A00               	xorlw	0	; case 0
  4263   0019CA  B4D8               	btfsc	status,2,c
  4264   0019CC  EF7A  F00C         	goto	l3603
  4265   0019D0  0A01               	xorlw	1	; case 1
  4266   0019D2  B4D8               	btfsc	status,2,c
  4267   0019D4  EFAB  F00C         	goto	l3605
  4268   0019D8  EFEE  F00C         	goto	l3611
  4269   0019DC                     l3611:
  4270                           
  4271                           ;MCAL_LAYER/GPIO/hal_gpio.c: 88:     return ret;
  4272   0019DC  504C               	movf	gpio_Pin_Write_Logic@ret^0,w,c
  4273   0019DE  0012               	return		;funcret
  4274   0019E0                     __end_of_gpio_Pin_Write_Logic:
  4275                           	callstack 0
  4276                           
  4277 ;; *************** function _gpio_Pin_Derction_Intialize *****************
  4278 ;; Defined at:
  4279 ;;		line 24 in file "MCAL_LAYER/GPIO/hal_gpio.c"
  4280 ;; Parameters:    Size  Location     Type
  4281 ;;  pin_config      2    2[COMRAM] PTR const struct .
  4282 ;;		 -> Lcd_Obj.lcd_data(4), Lcd_Obj(6), DC_Obj.dc_motor_pin(2), DC_Obj(2), 
  4283 ;;		 -> Keypad_Obj.pin_keypad_colums(4), Keypad_Obj.pin_keypad_rows(4), Keypad_Obj(8), 
  4284 ;; Auto vars:     Size  Location     Type
  4285 ;;  ret             1   10[COMRAM] unsigned char 
  4286 ;; Return value:  Size  Location     Type
  4287 ;;                  1    wreg      unsigned char 
  4288 ;; Registers used:
  4289 ;;		wreg, fsr2l, fsr2h, status,2, status,0, prodl, prodh
  4290 ;; Tracked objects:
  4291 ;;		On entry : 0/0
  4292 ;;		On exit  : 0/0
  4293 ;;		Unchanged: 0/0
  4294 ;; Data sizes:     COMRAM   BANK0   BANK1   BANK2   BANK3   BANK4   BANK5   BANK6   BANK7   BANK8   BANK9  BANK10  BANK1
      +1  BANK12  BANK13  BANK14  BANK15
  4295 ;;      Params:         2       0       0       0       0       0       0       0       0       0       0       0       
      +0       0       0       0       0
  4296 ;;      Locals:         1       0       0       0       0       0       0       0       0       0       0       0       
      +0       0       0       0       0
  4297 ;;      Temps:          6       0       0       0       0       0       0       0       0       0       0       0       
      +0       0       0       0       0
  4298 ;;      Totals:         9       0       0       0       0       0       0       0       0       0       0       0       
      +0       0       0       0       0
  4299 ;;Total ram usage:        9 bytes
  4300 ;; Hardware stack levels used: 1
  4301 ;; Hardware stack levels required when called: 3
  4302 ;; This function calls:
  4303 ;;		Nothing
  4304 ;; This function is called by:
  4305 ;;		_keypad_initialize
  4306 ;;		_gpio_Pin_Intialize
  4307 ;; This function uses a non-reentrant model
  4308 ;;
  4309                           
  4310                           	psect	text23
  4311   001770                     __ptext23:
  4312                           	callstack 0
  4313   001770                     _gpio_Pin_Derction_Intialize:
  4314                           	callstack 25
  4315   001770                     
  4316                           ;MCAL_LAYER/GPIO/hal_gpio.c: 25:     Std_ReturnType ret=(Std_ReturnType)0x01;
  4317   001770  0E01               	movlw	1
  4318   001772  6E4B               	movwf	gpio_Pin_Derction_Intialize@ret^0,c
  4319   001774                     
  4320                           ;MCAL_LAYER/GPIO/hal_gpio.c: 26:     if ((((void*)0)==pin_config) || (pin_config->pin > 
      +                          8 -1)){
  4321   001774  5043               	movf	gpio_Pin_Derction_Intialize@pin_config^0,w,c
  4322   001776  1044               	iorwf	(gpio_Pin_Derction_Intialize@pin_config+1)^0,w,c
  4323   001778  B4D8               	btfsc	status,2,c
  4324   00177A  EFC1  F00B         	goto	u2321
  4325   00177E  EFC3  F00B         	goto	u2320
  4326   001782                     u2321:
  4327   001782  EFD4  F00B         	goto	l3653
  4328   001786                     u2320:
  4329   001786  C043  FFD9         	movff	gpio_Pin_Derction_Intialize@pin_config,fsr2l
  4330   00178A  C044  FFDA         	movff	gpio_Pin_Derction_Intialize@pin_config+1,fsr2h
  4331   00178E  30DF               	rrcf	223,w,c
  4332   001790  32E8               	rrcf	wreg,f,c
  4333   001792  32E8               	rrcf	wreg,f,c
  4334   001794  0B07               	andlw	7
  4335   001796  6E45               	movwf	??_gpio_Pin_Derction_Intialize^0,c
  4336   001798  0E07               	movlw	7
  4337   00179A  6445               	cpfsgt	??_gpio_Pin_Derction_Intialize^0,c
  4338   00179C  EFD2  F00B         	goto	u2331
  4339   0017A0  EFD4  F00B         	goto	u2330
  4340   0017A4                     u2331:
  4341   0017A4  EF37  F00C         	goto	l3661
  4342   0017A8                     u2330:
  4343   0017A8                     l3653:
  4344                           
  4345                           ;MCAL_LAYER/GPIO/hal_gpio.c: 27:         ret=(Std_ReturnType)0x00;
  4346   0017A8  0E00               	movlw	0
  4347   0017AA  6E4B               	movwf	gpio_Pin_Derction_Intialize@ret^0,c
  4348                           
  4349                           ;MCAL_LAYER/GPIO/hal_gpio.c: 28:     }
  4350   0017AC  EF58  F00C         	goto	l3663
  4351   0017B0                     l3655:
  4352                           
  4353                           ;MCAL_LAYER/GPIO/hal_gpio.c: 32:                 (*tris_registers[pin_config->port] &=~(
      +                          (uint8)1 << pin_config->pin));
  4354   0017B0  C043  FFD9         	movff	gpio_Pin_Derction_Intialize@pin_config,fsr2l
  4355   0017B4  C044  FFDA         	movff	gpio_Pin_Derction_Intialize@pin_config+1,fsr2h
  4356   0017B8  30DF               	rrcf	223,w,c
  4357   0017BA  32E8               	rrcf	wreg,f,c
  4358   0017BC  32E8               	rrcf	wreg,f,c
  4359   0017BE  0B07               	andlw	7
  4360   0017C0  6E45               	movwf	??_gpio_Pin_Derction_Intialize^0,c
  4361   0017C2  0E01               	movlw	1
  4362   0017C4  6E46               	movwf	(??_gpio_Pin_Derction_Intialize+1)^0,c
  4363   0017C6  2A45               	incf	??_gpio_Pin_Derction_Intialize^0,f,c
  4364   0017C8  EFE8  F00B         	goto	u2344
  4365   0017CC                     u2345:
  4366   0017CC  90D8               	bcf	status,0,c
  4367   0017CE  3646               	rlcf	(??_gpio_Pin_Derction_Intialize+1)^0,f,c
  4368   0017D0                     u2344:
  4369   0017D0  2E45               	decfsz	??_gpio_Pin_Derction_Intialize^0,f,c
  4370   0017D2  EFE6  F00B         	goto	u2345
  4371   0017D6  5046               	movf	(??_gpio_Pin_Derction_Intialize+1)^0,w,c
  4372   0017D8  0AFF               	xorlw	255
  4373   0017DA  6E47               	movwf	(??_gpio_Pin_Derction_Intialize+2)^0,c
  4374   0017DC  C043  FFD9         	movff	gpio_Pin_Derction_Intialize@pin_config,fsr2l
  4375   0017E0  C044  FFDA         	movff	gpio_Pin_Derction_Intialize@pin_config+1,fsr2h
  4376   0017E4  50DF               	movf	223,w,c
  4377   0017E6  0B07               	andlw	7
  4378   0017E8  6E48               	movwf	(??_gpio_Pin_Derction_Intialize+3)^0,c
  4379   0017EA  5048               	movf	(??_gpio_Pin_Derction_Intialize+3)^0,w,c
  4380   0017EC  0D02               	mullw	2
  4381   0017EE  0E15               	movlw	low _tris_registers
  4382   0017F0  24F3               	addwf	243,w,c
  4383   0017F2  6ED9               	movwf	fsr2l,c
  4384   0017F4  0E00               	movlw	high _tris_registers
  4385   0017F6  20F4               	addwfc	prodh,w,c
  4386   0017F8  6EDA               	movwf	fsr2h,c
  4387   0017FA  CFDE F049          	movff	postinc2,??_gpio_Pin_Derction_Intialize+4
  4388   0017FE  CFDD F04A          	movff	postdec2,??_gpio_Pin_Derction_Intialize+5
  4389   001802  C049  FFD9         	movff	??_gpio_Pin_Derction_Intialize+4,fsr2l
  4390   001806  C04A  FFDA         	movff	??_gpio_Pin_Derction_Intialize+5,fsr2h
  4391   00180A  5047               	movf	(??_gpio_Pin_Derction_Intialize+2)^0,w,c
  4392   00180C  16DF               	andwf	indf2,f,c
  4393                           
  4394                           ;MCAL_LAYER/GPIO/hal_gpio.c: 33:              break;
  4395   00180E  EF58  F00C         	goto	l3663
  4396   001812                     l3657:
  4397                           
  4398                           ;MCAL_LAYER/GPIO/hal_gpio.c: 35:                 (*tris_registers[pin_config->port] |=((
      +                          uint8)1 << pin_config->pin));
  4399   001812  C043  FFD9         	movff	gpio_Pin_Derction_Intialize@pin_config,fsr2l
  4400   001816  C044  FFDA         	movff	gpio_Pin_Derction_Intialize@pin_config+1,fsr2h
  4401   00181A  30DF               	rrcf	223,w,c
  4402   00181C  32E8               	rrcf	wreg,f,c
  4403   00181E  32E8               	rrcf	wreg,f,c
  4404   001820  0B07               	andlw	7
  4405   001822  6E45               	movwf	??_gpio_Pin_Derction_Intialize^0,c
  4406   001824  0E01               	movlw	1
  4407   001826  6E46               	movwf	(??_gpio_Pin_Derction_Intialize+1)^0,c
  4408   001828  2A45               	incf	??_gpio_Pin_Derction_Intialize^0,f,c
  4409   00182A  EF19  F00C         	goto	u2354
  4410   00182E                     u2355:
  4411   00182E  90D8               	bcf	status,0,c
  4412   001830  3646               	rlcf	(??_gpio_Pin_Derction_Intialize+1)^0,f,c
  4413   001832                     u2354:
  4414   001832  2E45               	decfsz	??_gpio_Pin_Derction_Intialize^0,f,c
  4415   001834  EF17  F00C         	goto	u2355
  4416   001838  C043  FFD9         	movff	gpio_Pin_Derction_Intialize@pin_config,fsr2l
  4417   00183C  C044  FFDA         	movff	gpio_Pin_Derction_Intialize@pin_config+1,fsr2h
  4418   001840  50DF               	movf	223,w,c
  4419   001842  0B07               	andlw	7
  4420   001844  6E47               	movwf	(??_gpio_Pin_Derction_Intialize+2)^0,c
  4421   001846  5047               	movf	(??_gpio_Pin_Derction_Intialize+2)^0,w,c
  4422   001848  0D02               	mullw	2
  4423   00184A  0E15               	movlw	low _tris_registers
  4424   00184C  24F3               	addwf	243,w,c
  4425   00184E  6ED9               	movwf	fsr2l,c
  4426   001850  0E00               	movlw	high _tris_registers
  4427   001852  20F4               	addwfc	prodh,w,c
  4428   001854  6EDA               	movwf	fsr2h,c
  4429   001856  CFDE F048          	movff	postinc2,??_gpio_Pin_Derction_Intialize+3
  4430   00185A  CFDD F049          	movff	postdec2,??_gpio_Pin_Derction_Intialize+4
  4431   00185E  C048  FFD9         	movff	??_gpio_Pin_Derction_Intialize+3,fsr2l
  4432   001862  C049  FFDA         	movff	??_gpio_Pin_Derction_Intialize+4,fsr2h
  4433   001866  5046               	movf	(??_gpio_Pin_Derction_Intialize+1)^0,w,c
  4434   001868  12DF               	iorwf	indf2,f,c
  4435                           
  4436                           ;MCAL_LAYER/GPIO/hal_gpio.c: 36:                 break;
  4437   00186A  EF58  F00C         	goto	l3663
  4438   00186E                     l3661:
  4439   00186E  C043  FFD9         	movff	gpio_Pin_Derction_Intialize@pin_config,fsr2l
  4440   001872  C044  FFDA         	movff	gpio_Pin_Derction_Intialize@pin_config+1,fsr2h
  4441   001876  BCDF               	btfsc	indf2,6,c
  4442   001878  EF40  F00C         	goto	u2361
  4443   00187C  EF43  F00C         	goto	u2360
  4444   001880                     u2361:
  4445   001880  0E01               	movlw	1
  4446   001882  EF44  F00C         	goto	u2370
  4447   001886                     u2360:
  4448   001886  0E00               	movlw	0
  4449   001888                     u2370:
  4450   001888  6E45               	movwf	??_gpio_Pin_Derction_Intialize^0,c
  4451   00188A  6A46               	clrf	(??_gpio_Pin_Derction_Intialize+1)^0,c
  4452                           
  4453                           ; Switch on 2 bytes has been partitioned into a top level switch of size 1, and 1 sub-sw
      +                          itches
  4454                           ; Switch size 1, requested type "simple"
  4455                           ; Number of cases is 1, Range of values is 0 to 0
  4456                           ; switch strategies available:
  4457                           ; Name         Instructions Cycles
  4458                           ; simple_byte            4     3 (average)
  4459                           ;	Chosen strategy is simple_byte
  4460   00188C  5046               	movf	(??_gpio_Pin_Derction_Intialize+1)^0,w,c
  4461   00188E  0A00               	xorlw	0	; case 0
  4462   001890  B4D8               	btfsc	status,2,c
  4463   001892  EF4D  F00C         	goto	l4627
  4464   001896  EFD4  F00B         	goto	l3653
  4465   00189A                     l4627:
  4466                           
  4467                           ; Switch size 1, requested type "simple"
  4468                           ; Number of cases is 2, Range of values is 0 to 1
  4469                           ; switch strategies available:
  4470                           ; Name         Instructions Cycles
  4471                           ; simple_byte            7     4 (average)
  4472                           ;	Chosen strategy is simple_byte
  4473   00189A  5045               	movf	??_gpio_Pin_Derction_Intialize^0,w,c
  4474   00189C  0A00               	xorlw	0	; case 0
  4475   00189E  B4D8               	btfsc	status,2,c
  4476   0018A0  EFD8  F00B         	goto	l3655
  4477   0018A4  0A01               	xorlw	1	; case 1
  4478   0018A6  B4D8               	btfsc	status,2,c
  4479   0018A8  EF09  F00C         	goto	l3657
  4480   0018AC  EFD4  F00B         	goto	l3653
  4481   0018B0                     l3663:
  4482                           
  4483                           ;MCAL_LAYER/GPIO/hal_gpio.c: 40:     return ret;
  4484   0018B0  504B               	movf	gpio_Pin_Derction_Intialize@ret^0,w,c
  4485   0018B2  0012               	return		;funcret
  4486   0018B4                     __end_of_gpio_Pin_Derction_Intialize:
  4487                           	callstack 0
  4488                           
  4489 ;; *************** function __TimerDelay_ms *****************
  4490 ;; Defined at:
  4491 ;;		line 20 in file "MCAL_LAYER/Delay/M_Delay.c"
  4492 ;; Parameters:    Size  Location     Type
  4493 ;;  u16CopyDelay    2    9[COMRAM] unsigned short 
  4494 ;; Auto vars:     Size  Location     Type
  4495 ;;		None
  4496 ;; Return value:  Size  Location     Type
  4497 ;;                  1    wreg      void 
  4498 ;; Registers used:
  4499 ;;		wreg, fsr2l, fsr2h, status,2, status,0, cstack
  4500 ;; Tracked objects:
  4501 ;;		On entry : 0/0
  4502 ;;		On exit  : 0/0
  4503 ;;		Unchanged: 0/0
  4504 ;; Data sizes:     COMRAM   BANK0   BANK1   BANK2   BANK3   BANK4   BANK5   BANK6   BANK7   BANK8   BANK9  BANK10  BANK1
      +1  BANK12  BANK13  BANK14  BANK15
  4505 ;;      Params:         2       0       0       0       0       0       0       0       0       0       0       0       
      +0       0       0       0       0
  4506 ;;      Locals:         0       0       0       0       0       0       0       0       0       0       0       0       
      +0       0       0       0       0
  4507 ;;      Temps:          0       0       0       0       0       0       0       0       0       0       0       0       
      +0       0       0       0       0
  4508 ;;      Totals:         2       0       0       0       0       0       0       0       0       0       0       0       
      +0       0       0       0       0
  4509 ;;Total ram usage:        2 bytes
  4510 ;; Hardware stack levels used: 1
  4511 ;; Hardware stack levels required when called: 5
  4512 ;; This function calls:
  4513 ;;		_Timer0_DeInit
  4514 ;;		_Timer0_Init
  4515 ;; This function is called by:
  4516 ;;		_main
  4517 ;; This function uses a non-reentrant model
  4518 ;;
  4519                           
  4520                           	psect	text24
  4521   0022EE                     __ptext24:
  4522                           	callstack 0
  4523   0022EE                     __TimerDelay_ms:
  4524                           	callstack 25
  4525   0022EE                     
  4526                           ;MCAL_LAYER/Delay/M_Delay.c: 21:     Timer0_Init(&TimerDelay);
  4527   0022EE  0E33               	movlw	low _TimerDelay
  4528   0022F0  6E46               	movwf	Timer0_Init@_timer^0,c
  4529   0022F2  0E00               	movlw	high _TimerDelay
  4530   0022F4  6E47               	movwf	(Timer0_Init@_timer+1)^0,c
  4531   0022F6  ECBF  F00E         	call	_Timer0_Init	;wreg free
  4532   0022FA                     l4015:
  4533   0022FA  504A               	movf	__TimerDelay_ms@u16CopyDelay^0,w,c
  4534   0022FC  186A               	xorwf	_u16DelayCounter^0,w,c	;volatile
  4535   0022FE  E107               	bnz	u2721
  4536   002300  504B               	movf	(__TimerDelay_ms@u16CopyDelay+1)^0,w,c
  4537   002302  186B               	xorwf	(_u16DelayCounter+1)^0,w,c	;volatile
  4538   002304  A4D8               	btfss	status,2,c
  4539   002306  EF87  F011         	goto	u2721
  4540   00230A  EF89  F011         	goto	u2720
  4541   00230E                     u2721:
  4542   00230E  EF7D  F011         	goto	l4015
  4543   002312                     u2720:
  4544   002312                     
  4545                           ;MCAL_LAYER/Delay/M_Delay.c: 23:     if(u16DelayCounter==u16CopyDelay){
  4546   002312  504A               	movf	__TimerDelay_ms@u16CopyDelay^0,w,c
  4547   002314  186A               	xorwf	_u16DelayCounter^0,w,c	;volatile
  4548   002316  E107               	bnz	u2731
  4549   002318  504B               	movf	(__TimerDelay_ms@u16CopyDelay+1)^0,w,c
  4550   00231A  186B               	xorwf	(_u16DelayCounter+1)^0,w,c	;volatile
  4551   00231C  A4D8               	btfss	status,2,c
  4552   00231E  EF93  F011         	goto	u2731
  4553   002322  EF95  F011         	goto	u2730
  4554   002326                     u2731:
  4555   002326  EF99  F011         	goto	l4021
  4556   00232A                     u2730:
  4557   00232A                     
  4558                           ;MCAL_LAYER/Delay/M_Delay.c: 24:         u16DelayCounter=0;
  4559   00232A  0E00               	movlw	0
  4560   00232C  6E6B               	movwf	(_u16DelayCounter+1)^0,c	;volatile
  4561   00232E  0E00               	movlw	0
  4562   002330  6E6A               	movwf	_u16DelayCounter^0,c	;volatile
  4563   002332                     l4021:
  4564                           
  4565                           ;MCAL_LAYER/Delay/M_Delay.c: 26:     Timer0_DeInit(&TimerDelay);
  4566   002332  0E33               	movlw	low _TimerDelay
  4567   002334  6E43               	movwf	Timer0_DeInit@_timer^0,c
  4568   002336  0E00               	movlw	high _TimerDelay
  4569   002338  6E44               	movwf	(Timer0_DeInit@_timer+1)^0,c
  4570   00233A  ECF7  F012         	call	_Timer0_DeInit	;wreg free
  4571   00233E  0012               	return		;funcret
  4572   002340                     __end_of__TimerDelay_ms:
  4573                           	callstack 0
  4574                           
  4575 ;; *************** function _Timer0_Init *****************
  4576 ;; Defined at:
  4577 ;;		line 24 in file "MCAL_LAYER/TIMER0/hal_timer0.c"
  4578 ;; Parameters:    Size  Location     Type
  4579 ;;  _timer          2    5[COMRAM] PTR const struct .
  4580 ;;		 -> TimerDelay(6), 
  4581 ;; Auto vars:     Size  Location     Type
  4582 ;;  ret             1    0        unsigned char 
  4583 ;; Return value:  Size  Location     Type
  4584 ;;                  1    wreg      unsigned char 
  4585 ;; Registers used:
  4586 ;;		wreg, fsr2l, fsr2h, status,2, status,0, cstack
  4587 ;; Tracked objects:
  4588 ;;		On entry : 0/0
  4589 ;;		On exit  : 0/0
  4590 ;;		Unchanged: 0/0
  4591 ;; Data sizes:     COMRAM   BANK0   BANK1   BANK2   BANK3   BANK4   BANK5   BANK6   BANK7   BANK8   BANK9  BANK10  BANK1
      +1  BANK12  BANK13  BANK14  BANK15
  4592 ;;      Params:         2       0       0       0       0       0       0       0       0       0       0       0       
      +0       0       0       0       0
  4593 ;;      Locals:         0       0       0       0       0       0       0       0       0       0       0       0       
      +0       0       0       0       0
  4594 ;;      Temps:          2       0       0       0       0       0       0       0       0       0       0       0       
      +0       0       0       0       0
  4595 ;;      Totals:         4       0       0       0       0       0       0       0       0       0       0       0       
      +0       0       0       0       0
  4596 ;;Total ram usage:        4 bytes
  4597 ;; Hardware stack levels used: 1
  4598 ;; Hardware stack levels required when called: 4
  4599 ;; This function calls:
  4600 ;;		_Timer0_mode_of_register_size_selcet
  4601 ;;		_Timer0_mode_timer_or_counter_selcet
  4602 ;;		_Timer0_prescaler_selcet
  4603 ;; This function is called by:
  4604 ;;		__TimerDelay_ms
  4605 ;;		__TimerDelay_us
  4606 ;; This function uses a non-reentrant model
  4607 ;;
  4608                           
  4609                           	psect	text25
  4610   001D7E                     __ptext25:
  4611                           	callstack 0
  4612   001D7E                     _Timer0_Init:
  4613                           	callstack 25
  4614   001D7E                     
  4615                           ;MCAL_LAYER/TIMER0/hal_timer0.c: 26:         if (((void*)0)==_timer){
  4616   001D7E  5046               	movf	Timer0_Init@_timer^0,w,c
  4617   001D80  1047               	iorwf	(Timer0_Init@_timer+1)^0,w,c
  4618   001D82  A4D8               	btfss	status,2,c
  4619   001D84  EFC6  F00E         	goto	u2611
  4620   001D88  EFC8  F00E         	goto	u2610
  4621   001D8C                     u2611:
  4622   001D8C  EFCA  F00E         	goto	l546
  4623   001D90                     u2610:
  4624   001D90                     
  4625                           ;MCAL_LAYER/TIMER0/hal_timer0.c: 28:         }
  4626   001D90  EF0B  F00F         	goto	l548
  4627   001D94                     l546:
  4628                           
  4629                           ;MCAL_LAYER/TIMER0/hal_timer0.c: 31:             (T0CONbits.TMR0ON=0);
  4630   001D94  9ED5               	bcf	213,7,c	;volatile
  4631   001D96                     
  4632                           ;MCAL_LAYER/TIMER0/hal_timer0.c: 33:             Timer0_prescaler_selcet(_timer);
  4633   001D96  C046  F043         	movff	Timer0_Init@_timer,Timer0_prescaler_selcet@_timer
  4634   001D9A  C047  F044         	movff	Timer0_Init@_timer+1,Timer0_prescaler_selcet@_timer+1
  4635   001D9E  ECCA  F010         	call	_Timer0_prescaler_selcet	;wreg free
  4636                           
  4637                           ;MCAL_LAYER/TIMER0/hal_timer0.c: 35:             Timer0_mode_of_register_size_selcet(_ti
      +                          mer);
  4638   001DA2  C046  F043         	movff	Timer0_Init@_timer,Timer0_mode_of_register_size_selcet@_timer
  4639   001DA6  C047  F044         	movff	Timer0_Init@_timer+1,Timer0_mode_of_register_size_selcet@_timer+1
  4640   001DAA  EC6A  F012         	call	_Timer0_mode_of_register_size_selcet	;wreg free
  4641                           
  4642                           ;MCAL_LAYER/TIMER0/hal_timer0.c: 38:             Timer0_mode_timer_or_counter_selcet(_ti
      +                          mer);
  4643   001DAE  C046  F043         	movff	Timer0_Init@_timer,Timer0_mode_timer_or_counter_selcet@_timer
  4644   001DB2  C047  F044         	movff	Timer0_Init@_timer+1,Timer0_mode_timer_or_counter_selcet@_timer+1
  4645   001DB6  EC50  F00F         	call	_Timer0_mode_timer_or_counter_selcet	;wreg free
  4646   001DBA                     
  4647                           ;MCAL_LAYER/TIMER0/hal_timer0.c: 40:             TMR0H=(_timer->timer0_preloaded_value) 
      +                          >> 8;
  4648   001DBA  EE20 F003          	lfsr	2,3
  4649   001DBE  5046               	movf	Timer0_Init@_timer^0,w,c
  4650   001DC0  26D9               	addwf	fsr2l,f,c
  4651   001DC2  5047               	movf	(Timer0_Init@_timer+1)^0,w,c
  4652   001DC4  22DA               	addwfc	fsr2h,f,c
  4653   001DC6  CFDE F048          	movff	postinc2,??_Timer0_Init
  4654   001DCA  CFDD F049          	movff	postdec2,??_Timer0_Init+1
  4655   001DCE  C049  F048         	movff	??_Timer0_Init+1,??_Timer0_Init
  4656   001DD2  6A49               	clrf	(??_Timer0_Init+1)^0,c
  4657   001DD4  5048               	movf	??_Timer0_Init^0,w,c
  4658   001DD6  6ED7               	movwf	215,c	;volatile
  4659   001DD8                     
  4660                           ;MCAL_LAYER/TIMER0/hal_timer0.c: 41:             TMR0L=(uint8)(_timer->timer0_preloaded_
      +                          value);
  4661   001DD8  EE20 F003          	lfsr	2,3
  4662   001DDC  5046               	movf	Timer0_Init@_timer^0,w,c
  4663   001DDE  26D9               	addwf	fsr2l,f,c
  4664   001DE0  5047               	movf	(Timer0_Init@_timer+1)^0,w,c
  4665   001DE2  22DA               	addwfc	fsr2h,f,c
  4666   001DE4  50DF               	movf	indf2,w,c
  4667   001DE6  6ED6               	movwf	214,c	;volatile
  4668   001DE8                     
  4669                           ;MCAL_LAYER/TIMER0/hal_timer0.c: 46:       preload_timer=_timer->timer0_preloaded_value;
  4670   001DE8  EE20 F003          	lfsr	2,3
  4671   001DEC  5046               	movf	Timer0_Init@_timer^0,w,c
  4672   001DEE  26D9               	addwf	fsr2l,f,c
  4673   001DF0  5047               	movf	(Timer0_Init@_timer+1)^0,w,c
  4674   001DF2  22DA               	addwfc	fsr2h,f,c
  4675   001DF4  CFDE F066          	movff	postinc2,_preload_timer
  4676   001DF8  CFDD F067          	movff	postdec2,_preload_timer+1
  4677   001DFC                     
  4678                           ;MCAL_LAYER/TIMER0/hal_timer0.c: 47:        (INTCONbits.TMR0IE=1);
  4679   001DFC  8AF2               	bsf	242,5,c	;volatile
  4680   001DFE                     
  4681                           ;MCAL_LAYER/TIMER0/hal_timer0.c: 48:        (INTCONbits.TMR0IF=0);
  4682   001DFE  94F2               	bcf	242,2,c	;volatile
  4683   001E00                     
  4684                           ;MCAL_LAYER/TIMER0/hal_timer0.c: 61:             (INTCONbits.GIE=1);
  4685   001E00  8EF2               	bsf	242,7,c	;volatile
  4686   001E02                     
  4687                           ;MCAL_LAYER/TIMER0/hal_timer0.c: 62:             (INTCONbits.PEIE=1);
  4688   001E02  8CF2               	bsf	242,6,c	;volatile
  4689   001E04                     
  4690                           ;MCAL_LAYER/TIMER0/hal_timer0.c: 64:            TIMER0_interruptHandler =_timer->TIMER0_
      +                          HandlerInterrupt;
  4691   001E04  C046  FFD9         	movff	Timer0_Init@_timer,fsr2l
  4692   001E08  C047  FFDA         	movff	Timer0_Init@_timer+1,fsr2h
  4693   001E0C  CFDE F068          	movff	postinc2,_TIMER0_interruptHandler
  4694   001E10  CFDD F069          	movff	postdec2,_TIMER0_interruptHandler+1
  4695   001E14                     
  4696                           ;MCAL_LAYER/TIMER0/hal_timer0.c: 68:             (T0CONbits.TMR0ON=1);
  4697   001E14  8ED5               	bsf	213,7,c	;volatile
  4698   001E16                     l548:
  4699   001E16  0012               	return		;funcret
  4700   001E18                     __end_of_Timer0_Init:
  4701                           	callstack 0
  4702                           
  4703 ;; *************** function _Timer0_prescaler_selcet *****************
  4704 ;; Defined at:
  4705 ;;		line 135 in file "MCAL_LAYER/TIMER0/hal_timer0.c"
  4706 ;; Parameters:    Size  Location     Type
  4707 ;;  _timer          2    2[COMRAM] PTR const struct .
  4708 ;;		 -> TimerDelay(6), 
  4709 ;; Auto vars:     Size  Location     Type
  4710 ;;		None
  4711 ;; Return value:  Size  Location     Type
  4712 ;;                  1    wreg      void 
  4713 ;; Registers used:
  4714 ;;		wreg, fsr2l, fsr2h, status,2, status,0
  4715 ;; Tracked objects:
  4716 ;;		On entry : 0/0
  4717 ;;		On exit  : 0/0
  4718 ;;		Unchanged: 0/0
  4719 ;; Data sizes:     COMRAM   BANK0   BANK1   BANK2   BANK3   BANK4   BANK5   BANK6   BANK7   BANK8   BANK9  BANK10  BANK1
      +1  BANK12  BANK13  BANK14  BANK15
  4720 ;;      Params:         2       0       0       0       0       0       0       0       0       0       0       0       
      +0       0       0       0       0
  4721 ;;      Locals:         0       0       0       0       0       0       0       0       0       0       0       0       
      +0       0       0       0       0
  4722 ;;      Temps:          1       0       0       0       0       0       0       0       0       0       0       0       
      +0       0       0       0       0
  4723 ;;      Totals:         3       0       0       0       0       0       0       0       0       0       0       0       
      +0       0       0       0       0
  4724 ;;Total ram usage:        3 bytes
  4725 ;; Hardware stack levels used: 1
  4726 ;; Hardware stack levels required when called: 3
  4727 ;; This function calls:
  4728 ;;		Nothing
  4729 ;; This function is called by:
  4730 ;;		_Timer0_Init
  4731 ;; This function uses a non-reentrant model
  4732 ;;
  4733                           
  4734                           	psect	text26
  4735   002194                     __ptext26:
  4736                           	callstack 0
  4737   002194                     _Timer0_prescaler_selcet:
  4738                           	callstack 25
  4739   002194                     
  4740                           ;MCAL_LAYER/TIMER0/hal_timer0.c: 136:     if (1==_timer->timer0_prescaler_enable){
  4741   002194  EE20 F005          	lfsr	2,5
  4742   002198  5043               	movf	Timer0_prescaler_selcet@_timer^0,w,c
  4743   00219A  26D9               	addwf	fsr2l,f,c
  4744   00219C  5044               	movf	(Timer0_prescaler_selcet@_timer+1)^0,w,c
  4745   00219E  22DA               	addwfc	fsr2h,f,c
  4746   0021A0  A6DF               	btfss	indf2,3,c
  4747   0021A2  EFD5  F010         	goto	u2381
  4748   0021A6  EFD7  F010         	goto	u2380
  4749   0021AA                     u2381:
  4750   0021AA  EFE7  F010         	goto	l3677
  4751   0021AE                     u2380:
  4752   0021AE                     
  4753                           ;MCAL_LAYER/TIMER0/hal_timer0.c: 137:         (T0CONbits.PSA=0);
  4754   0021AE  96D5               	bcf	213,3,c	;volatile
  4755   0021B0                     
  4756                           ;MCAL_LAYER/TIMER0/hal_timer0.c: 138:         T0CONbits.T0PS=_timer->_prescaler_value;
  4757   0021B0  EE20 F002          	lfsr	2,2
  4758   0021B4  5043               	movf	Timer0_prescaler_selcet@_timer^0,w,c
  4759   0021B6  26D9               	addwf	fsr2l,f,c
  4760   0021B8  5044               	movf	(Timer0_prescaler_selcet@_timer+1)^0,w,c
  4761   0021BA  22DA               	addwfc	fsr2h,f,c
  4762   0021BC  50DF               	movf	indf2,w,c
  4763   0021BE  6E45               	movwf	??_Timer0_prescaler_selcet^0,c
  4764   0021C0  50D5               	movf	213,w,c	;volatile
  4765   0021C2  1845               	xorwf	??_Timer0_prescaler_selcet^0,w,c
  4766   0021C4  0BF8               	andlw	-8
  4767   0021C6  1845               	xorwf	??_Timer0_prescaler_selcet^0,w,c
  4768   0021C8  6ED5               	movwf	213,c	;volatile
  4769                           
  4770                           ;MCAL_LAYER/TIMER0/hal_timer0.c: 139:     }
  4771   0021CA  EFF5  F010         	goto	l572
  4772   0021CE                     l3677:
  4773   0021CE  EE20 F005          	lfsr	2,5
  4774   0021D2  5043               	movf	Timer0_prescaler_selcet@_timer^0,w,c
  4775   0021D4  26D9               	addwf	fsr2l,f,c
  4776   0021D6  5044               	movf	(Timer0_prescaler_selcet@_timer+1)^0,w,c
  4777   0021D8  22DA               	addwfc	fsr2h,f,c
  4778   0021DA  B6DF               	btfsc	indf2,3,c
  4779   0021DC  EFF2  F010         	goto	u2391
  4780   0021E0  EFF4  F010         	goto	u2390
  4781   0021E4                     u2391:
  4782   0021E4  EFF5  F010         	goto	l572
  4783   0021E8                     u2390:
  4784   0021E8                     
  4785                           ;MCAL_LAYER/TIMER0/hal_timer0.c: 141:         (T0CONbits.PSA=1);
  4786   0021E8  86D5               	bsf	213,3,c	;volatile
  4787   0021EA                     l572:
  4788   0021EA  0012               	return		;funcret
  4789   0021EC                     __end_of_Timer0_prescaler_selcet:
  4790                           	callstack 0
  4791                           
  4792 ;; *************** function _Timer0_mode_timer_or_counter_selcet *****************
  4793 ;; Defined at:
  4794 ;;		line 156 in file "MCAL_LAYER/TIMER0/hal_timer0.c"
  4795 ;; Parameters:    Size  Location     Type
  4796 ;;  _timer          2    2[COMRAM] PTR const struct .
  4797 ;;		 -> TimerDelay(6), 
  4798 ;; Auto vars:     Size  Location     Type
  4799 ;;		None
  4800 ;; Return value:  Size  Location     Type
  4801 ;;                  1    wreg      void 
  4802 ;; Registers used:
  4803 ;;		wreg, fsr2l, fsr2h, status,2, status,0
  4804 ;; Tracked objects:
  4805 ;;		On entry : 0/0
  4806 ;;		On exit  : 0/0
  4807 ;;		Unchanged: 0/0
  4808 ;; Data sizes:     COMRAM   BANK0   BANK1   BANK2   BANK3   BANK4   BANK5   BANK6   BANK7   BANK8   BANK9  BANK10  BANK1
      +1  BANK12  BANK13  BANK14  BANK15
  4809 ;;      Params:         2       0       0       0       0       0       0       0       0       0       0       0       
      +0       0       0       0       0
  4810 ;;      Locals:         0       0       0       0       0       0       0       0       0       0       0       0       
      +0       0       0       0       0
  4811 ;;      Temps:          0       0       0       0       0       0       0       0       0       0       0       0       
      +0       0       0       0       0
  4812 ;;      Totals:         2       0       0       0       0       0       0       0       0       0       0       0       
      +0       0       0       0       0
  4813 ;;Total ram usage:        2 bytes
  4814 ;; Hardware stack levels used: 1
  4815 ;; Hardware stack levels required when called: 3
  4816 ;; This function calls:
  4817 ;;		Nothing
  4818 ;; This function is called by:
  4819 ;;		_Timer0_Init
  4820 ;; This function uses a non-reentrant model
  4821 ;;
  4822                           
  4823                           	psect	text27
  4824   001EA0                     __ptext27:
  4825                           	callstack 0
  4826   001EA0                     _Timer0_mode_timer_or_counter_selcet:
  4827                           	callstack 25
  4828   001EA0                     
  4829                           ;MCAL_LAYER/TIMER0/hal_timer0.c: 157:     if (1==_timer->timer0_mode_timer_or_counter){
  4830   001EA0  EE20 F005          	lfsr	2,5
  4831   001EA4  5043               	movf	Timer0_mode_timer_or_counter_selcet@_timer^0,w,c
  4832   001EA6  26D9               	addwf	fsr2l,f,c
  4833   001EA8  5044               	movf	(Timer0_mode_timer_or_counter_selcet@_timer+1)^0,w,c
  4834   001EAA  22DA               	addwfc	fsr2h,f,c
  4835   001EAC  A2DF               	btfss	indf2,1,c
  4836   001EAE  EF5B  F00F         	goto	u2421
  4837   001EB2  EF5D  F00F         	goto	u2420
  4838   001EB6                     u2421:
  4839   001EB6  EF60  F00F         	goto	l3693
  4840   001EBA                     u2420:
  4841   001EBA                     
  4842                           ;MCAL_LAYER/TIMER0/hal_timer0.c: 158:         (T0CONbits.T0CS=0);
  4843   001EBA  9AD5               	bcf	213,5,c	;volatile
  4844                           
  4845                           ;MCAL_LAYER/TIMER0/hal_timer0.c: 159:     }
  4846   001EBC  EF8E  F00F         	goto	l589
  4847   001EC0                     l3693:
  4848   001EC0  EE20 F005          	lfsr	2,5
  4849   001EC4  5043               	movf	Timer0_mode_timer_or_counter_selcet@_timer^0,w,c
  4850   001EC6  26D9               	addwf	fsr2l,f,c
  4851   001EC8  5044               	movf	(Timer0_mode_timer_or_counter_selcet@_timer+1)^0,w,c
  4852   001ECA  22DA               	addwfc	fsr2h,f,c
  4853   001ECC  B2DF               	btfsc	indf2,1,c
  4854   001ECE  EF6B  F00F         	goto	u2431
  4855   001ED2  EF6D  F00F         	goto	u2430
  4856   001ED6                     u2431:
  4857   001ED6  EF8E  F00F         	goto	l589
  4858   001EDA                     u2430:
  4859   001EDA                     
  4860                           ;MCAL_LAYER/TIMER0/hal_timer0.c: 161:       (T0CONbits.T0CS=1);
  4861   001EDA  8AD5               	bsf	213,5,c	;volatile
  4862   001EDC                     
  4863                           ;MCAL_LAYER/TIMER0/hal_timer0.c: 162:       if (1==_timer->timer0_counter_edge){
  4864   001EDC  EE20 F005          	lfsr	2,5
  4865   001EE0  5043               	movf	Timer0_mode_timer_or_counter_selcet@_timer^0,w,c
  4866   001EE2  26D9               	addwf	fsr2l,f,c
  4867   001EE4  5044               	movf	(Timer0_mode_timer_or_counter_selcet@_timer+1)^0,w,c
  4868   001EE6  22DA               	addwfc	fsr2h,f,c
  4869   001EE8  A4DF               	btfss	indf2,2,c
  4870   001EEA  EF79  F00F         	goto	u2441
  4871   001EEE  EF7B  F00F         	goto	u2440
  4872   001EF2                     u2441:
  4873   001EF2  EF7E  F00F         	goto	l3701
  4874   001EF6                     u2440:
  4875   001EF6                     
  4876                           ;MCAL_LAYER/TIMER0/hal_timer0.c: 163:           (T0CONbits.T0SE=0);
  4877   001EF6  98D5               	bcf	213,4,c	;volatile
  4878                           
  4879                           ;MCAL_LAYER/TIMER0/hal_timer0.c: 164:       }
  4880   001EF8  EF8E  F00F         	goto	l589
  4881   001EFC                     l3701:
  4882   001EFC  EE20 F005          	lfsr	2,5
  4883   001F00  5043               	movf	Timer0_mode_timer_or_counter_selcet@_timer^0,w,c
  4884   001F02  26D9               	addwf	fsr2l,f,c
  4885   001F04  5044               	movf	(Timer0_mode_timer_or_counter_selcet@_timer+1)^0,w,c
  4886   001F06  22DA               	addwfc	fsr2h,f,c
  4887   001F08  B4DF               	btfsc	indf2,2,c
  4888   001F0A  EF89  F00F         	goto	u2451
  4889   001F0E  EF8B  F00F         	goto	u2450
  4890   001F12                     u2451:
  4891   001F12  EF8E  F00F         	goto	l588
  4892   001F16                     u2450:
  4893   001F16                     
  4894                           ;MCAL_LAYER/TIMER0/hal_timer0.c: 166:           (T0CONbits.T0SE=1);
  4895   001F16  88D5               	bsf	213,4,c	;volatile
  4896   001F18  EF8E  F00F         	goto	l589
  4897   001F1C                     l588:
  4898   001F1C                     l589:
  4899   001F1C  0012               	return		;funcret
  4900   001F1E                     __end_of_Timer0_mode_timer_or_counter_selcet:
  4901                           	callstack 0
  4902                           
  4903 ;; *************** function _Timer0_mode_of_register_size_selcet *****************
  4904 ;; Defined at:
  4905 ;;		line 146 in file "MCAL_LAYER/TIMER0/hal_timer0.c"
  4906 ;; Parameters:    Size  Location     Type
  4907 ;;  _timer          2    2[COMRAM] PTR const struct .
  4908 ;;		 -> TimerDelay(6), 
  4909 ;; Auto vars:     Size  Location     Type
  4910 ;;		None
  4911 ;; Return value:  Size  Location     Type
  4912 ;;                  1    wreg      void 
  4913 ;; Registers used:
  4914 ;;		wreg, fsr2l, fsr2h, status,2, status,0
  4915 ;; Tracked objects:
  4916 ;;		On entry : 0/0
  4917 ;;		On exit  : 0/0
  4918 ;;		Unchanged: 0/0
  4919 ;; Data sizes:     COMRAM   BANK0   BANK1   BANK2   BANK3   BANK4   BANK5   BANK6   BANK7   BANK8   BANK9  BANK10  BANK1
      +1  BANK12  BANK13  BANK14  BANK15
  4920 ;;      Params:         2       0       0       0       0       0       0       0       0       0       0       0       
      +0       0       0       0       0
  4921 ;;      Locals:         0       0       0       0       0       0       0       0       0       0       0       0       
      +0       0       0       0       0
  4922 ;;      Temps:          0       0       0       0       0       0       0       0       0       0       0       0       
      +0       0       0       0       0
  4923 ;;      Totals:         2       0       0       0       0       0       0       0       0       0       0       0       
      +0       0       0       0       0
  4924 ;;Total ram usage:        2 bytes
  4925 ;; Hardware stack levels used: 1
  4926 ;; Hardware stack levels required when called: 3
  4927 ;; This function calls:
  4928 ;;		Nothing
  4929 ;; This function is called by:
  4930 ;;		_Timer0_Init
  4931 ;; This function uses a non-reentrant model
  4932 ;;
  4933                           
  4934                           	psect	text28
  4935   0024D4                     __ptext28:
  4936                           	callstack 0
  4937   0024D4                     _Timer0_mode_of_register_size_selcet:
  4938                           	callstack 25
  4939   0024D4                     
  4940                           ;MCAL_LAYER/TIMER0/hal_timer0.c: 147:     if (1==_timer->timer0_mode_register_size){
  4941   0024D4  EE20 F005          	lfsr	2,5
  4942   0024D8  5043               	movf	Timer0_mode_of_register_size_selcet@_timer^0,w,c
  4943   0024DA  26D9               	addwf	fsr2l,f,c
  4944   0024DC  5044               	movf	(Timer0_mode_of_register_size_selcet@_timer+1)^0,w,c
  4945   0024DE  22DA               	addwfc	fsr2h,f,c
  4946   0024E0  A0DF               	btfss	indf2,0,c
  4947   0024E2  EF75  F012         	goto	u2401
  4948   0024E6  EF77  F012         	goto	u2400
  4949   0024EA                     u2401:
  4950   0024EA  EF7A  F012         	goto	l3685
  4951   0024EE                     u2400:
  4952   0024EE                     
  4953                           ;MCAL_LAYER/TIMER0/hal_timer0.c: 148:         (T0CONbits.T08BIT=1);
  4954   0024EE  8CD5               	bsf	213,6,c	;volatile
  4955                           
  4956                           ;MCAL_LAYER/TIMER0/hal_timer0.c: 149:     }
  4957   0024F0  EF88  F012         	goto	l579
  4958   0024F4                     l3685:
  4959   0024F4  EE20 F005          	lfsr	2,5
  4960   0024F8  5043               	movf	Timer0_mode_of_register_size_selcet@_timer^0,w,c
  4961   0024FA  26D9               	addwf	fsr2l,f,c
  4962   0024FC  5044               	movf	(Timer0_mode_of_register_size_selcet@_timer+1)^0,w,c
  4963   0024FE  22DA               	addwfc	fsr2h,f,c
  4964   002500  B0DF               	btfsc	indf2,0,c
  4965   002502  EF85  F012         	goto	u2411
  4966   002506  EF87  F012         	goto	u2410
  4967   00250A                     u2411:
  4968   00250A  EF88  F012         	goto	l579
  4969   00250E                     u2410:
  4970   00250E                     
  4971                           ;MCAL_LAYER/TIMER0/hal_timer0.c: 151:       (T0CONbits.T08BIT=0);
  4972   00250E  9CD5               	bcf	213,6,c	;volatile
  4973   002510                     l579:
  4974   002510  0012               	return		;funcret
  4975   002512                     __end_of_Timer0_mode_of_register_size_selcet:
  4976                           	callstack 0
  4977                           
  4978 ;; *************** function _Timer0_DeInit *****************
  4979 ;; Defined at:
  4980 ;;		line 79 in file "MCAL_LAYER/TIMER0/hal_timer0.c"
  4981 ;; Parameters:    Size  Location     Type
  4982 ;;  _timer          2    2[COMRAM] PTR const struct .
  4983 ;;		 -> TimerDelay(6), 
  4984 ;; Auto vars:     Size  Location     Type
  4985 ;;  ret             1    0        unsigned char 
  4986 ;; Return value:  Size  Location     Type
  4987 ;;                  1    wreg      unsigned char 
  4988 ;; Registers used:
  4989 ;;		wreg, status,2, status,0
  4990 ;; Tracked objects:
  4991 ;;		On entry : 0/0
  4992 ;;		On exit  : 0/0
  4993 ;;		Unchanged: 0/0
  4994 ;; Data sizes:     COMRAM   BANK0   BANK1   BANK2   BANK3   BANK4   BANK5   BANK6   BANK7   BANK8   BANK9  BANK10  BANK1
      +1  BANK12  BANK13  BANK14  BANK15
  4995 ;;      Params:         2       0       0       0       0       0       0       0       0       0       0       0       
      +0       0       0       0       0
  4996 ;;      Locals:         0       0       0       0       0       0       0       0       0       0       0       0       
      +0       0       0       0       0
  4997 ;;      Temps:          0       0       0       0       0       0       0       0       0       0       0       0       
      +0       0       0       0       0
  4998 ;;      Totals:         2       0       0       0       0       0       0       0       0       0       0       0       
      +0       0       0       0       0
  4999 ;;Total ram usage:        2 bytes
  5000 ;; Hardware stack levels used: 1
  5001 ;; Hardware stack levels required when called: 3
  5002 ;; This function calls:
  5003 ;;		Nothing
  5004 ;; This function is called by:
  5005 ;;		__TimerDelay_ms
  5006 ;;		__TimerDelay_us
  5007 ;; This function uses a non-reentrant model
  5008 ;;
  5009                           
  5010                           	psect	text29
  5011   0025EE                     __ptext29:
  5012                           	callstack 0
  5013   0025EE                     _Timer0_DeInit:
  5014                           	callstack 26
  5015   0025EE                     
  5016                           ;MCAL_LAYER/TIMER0/hal_timer0.c: 81:         if (((void*)0)==_timer){
  5017   0025EE  5043               	movf	Timer0_DeInit@_timer^0,w,c
  5018   0025F0  1044               	iorwf	(Timer0_DeInit@_timer+1)^0,w,c
  5019   0025F2  A4D8               	btfss	status,2,c
  5020   0025F4  EFFE  F012         	goto	u2621
  5021   0025F8  EF00  F013         	goto	u2620
  5022   0025FC                     u2621:
  5023   0025FC  EF02  F013         	goto	l551
  5024   002600                     u2620:
  5025   002600                     
  5026                           ;MCAL_LAYER/TIMER0/hal_timer0.c: 83:         }
  5027   002600  EF04  F013         	goto	l553
  5028   002604                     l551:
  5029                           
  5030                           ;MCAL_LAYER/TIMER0/hal_timer0.c: 85:           (T0CONbits.TMR0ON=0);
  5031   002604  9ED5               	bcf	213,7,c	;volatile
  5032                           
  5033                           ;MCAL_LAYER/TIMER0/hal_timer0.c: 87:    (INTCONbits.TMR0IE=0);
  5034   002606  9AF2               	bcf	242,5,c	;volatile
  5035   002608                     l553:
  5036   002608  0012               	return		;funcret
  5037   00260A                     __end_of_Timer0_DeInit:
  5038                           	callstack 0
  5039                           
  5040 ;; *************** function _interruptManager *****************
  5041 ;; Defined at:
  5042 ;;		line 19 in file "MCAL_LAYER/interrupt/mcal_interrupt_manager.c"
  5043 ;; Parameters:    Size  Location     Type
  5044 ;;		None
  5045 ;; Auto vars:     Size  Location     Type
  5046 ;;		None
  5047 ;; Return value:  Size  Location     Type
  5048 ;;                  1    wreg      void 
  5049 ;; Registers used:
  5050 ;;		wreg, status,2, status,0, pcl, pclath, pclatu, tosl, cstack
  5051 ;; Tracked objects:
  5052 ;;		On entry : 0/0
  5053 ;;		On exit  : 0/0
  5054 ;;		Unchanged: 0/0
  5055 ;; Data sizes:     COMRAM   BANK0   BANK1   BANK2   BANK3   BANK4   BANK5   BANK6   BANK7   BANK8   BANK9  BANK10  BANK1
      +1  BANK12  BANK13  BANK14  BANK15
  5056 ;;      Params:         0       0       0       0       0       0       0       0       0       0       0       0       
      +0       0       0       0       0
  5057 ;;      Locals:         0       0       0       0       0       0       0       0       0       0       0       0       
      +0       0       0       0       0
  5058 ;;      Temps:          2       0       0       0       0       0       0       0       0       0       0       0       
      +0       0       0       0       0
  5059 ;;      Totals:         2       0       0       0       0       0       0       0       0       0       0       0       
      +0       0       0       0       0
  5060 ;;Total ram usage:        2 bytes
  5061 ;; Hardware stack levels used: 1
  5062 ;; Hardware stack levels required when called: 2
  5063 ;; This function calls:
  5064 ;;		_TIMER0_ISR
  5065 ;;		_TIMER1_ISR
  5066 ;; This function is called by:
  5067 ;;		Interrupt level 2
  5068 ;; This function uses a non-reentrant model
  5069 ;;
  5070                           
  5071                           	psect	intcode
  5072   000008                     __pintcode:
  5073                           	callstack 0
  5074   000008                     _interruptManager:
  5075                           	callstack 24
  5076                           
  5077                           ;incstack = 0
  5078   000008  8270               	bsf	int$flags,1,c	;set compiler interrupt flag (level 2)
  5079   00000A  ED4C  F011         	call	int_func,f	;refresh shadow registers
  5080                           
  5081                           	psect	intcode_body
  5082   002298                     __pintcode_body:
  5083                           	callstack 24
  5084   002298                     int_func:
  5085                           	callstack 24
  5086   002298  0006               	pop		; remove dummy address from shadow register refresh
  5087   00229A  CFFA F041          	movff	pclath,??_interruptManager
  5088   00229E  CFFB F042          	movff	pclatu,??_interruptManager+1
  5089   0022A2                     
  5090                           ;MCAL_LAYER/interrupt/mcal_interrupt_manager.c: 23:     if ((1==INTCONbits.TMR0IE) && (1
      +                          ==INTCONbits.TMR0IF)){
  5091   0022A2  AAF2               	btfss	242,5,c	;volatile
  5092   0022A4  EF56  F011         	goto	i2u114_41
  5093   0022A8  EF58  F011         	goto	i2u114_40
  5094   0022AC                     i2u114_41:
  5095   0022AC  EF61  F011         	goto	i2l2471
  5096   0022B0                     i2u114_40:
  5097   0022B0  A4F2               	btfss	242,2,c	;volatile
  5098   0022B2  EF5D  F011         	goto	i2u115_41
  5099   0022B6  EF5F  F011         	goto	i2u115_40
  5100   0022BA                     i2u115_41:
  5101   0022BA  EF61  F011         	goto	i2l2471
  5102   0022BE                     i2u115_40:
  5103   0022BE                     
  5104                           ;MCAL_LAYER/interrupt/mcal_interrupt_manager.c: 24:         TIMER0_ISR();
  5105   0022BE  ECDC  F012         	call	_TIMER0_ISR	;wreg free
  5106   0022C2                     i2l2471:
  5107                           
  5108                           ;MCAL_LAYER/interrupt/mcal_interrupt_manager.c: 28:     if ((1==PIE1bits.TMR1IE) && (1==
      +                          PIR1bits.TMR1IF)){
  5109   0022C2  A09D               	btfss	157,0,c	;volatile
  5110   0022C4  EF66  F011         	goto	i2u116_41
  5111   0022C8  EF68  F011         	goto	i2u116_40
  5112   0022CC                     i2u116_41:
  5113   0022CC  EF71  F011         	goto	i2l525
  5114   0022D0                     i2u116_40:
  5115   0022D0  A09E               	btfss	158,0,c	;volatile
  5116   0022D2  EF6D  F011         	goto	i2u117_41
  5117   0022D6  EF6F  F011         	goto	i2u117_40
  5118   0022DA                     i2u117_41:
  5119   0022DA  EF71  F011         	goto	i2l525
  5120   0022DE                     i2u117_40:
  5121   0022DE                     
  5122                           ;MCAL_LAYER/interrupt/mcal_interrupt_manager.c: 29:         TIMER1_ISR();
  5123   0022DE  EC11  F013         	call	_TIMER1_ISR	;wreg free
  5124   0022E2                     i2l525:
  5125   0022E2  C042  FFFB         	movff	??_interruptManager+1,pclatu
  5126   0022E6  C041  FFFA         	movff	??_interruptManager,pclath
  5127   0022EA  9270               	bcf	int$flags,1,c	;clear compiler interrupt flag (level 2)
  5128   0022EC  0011               	retfie		f
  5129   0022EE                     __end_of_interruptManager:
  5130                           	callstack 0
  5131                           
  5132 ;; *************** function _TIMER1_ISR *****************
  5133 ;; Defined at:
  5134 ;;		line 169 in file "MCAL_LAYER/TIMER1/hal_timer1.c"
  5135 ;; Parameters:    Size  Location     Type
  5136 ;;		None
  5137 ;; Auto vars:     Size  Location     Type
  5138 ;;		None
  5139 ;; Return value:  Size  Location     Type
  5140 ;;                  1    wreg      void 
  5141 ;; Registers used:
  5142 ;;		wreg, status,2
  5143 ;; Tracked objects:
  5144 ;;		On entry : 0/0
  5145 ;;		On exit  : 0/0
  5146 ;;		Unchanged: 0/0
  5147 ;; Data sizes:     COMRAM   BANK0   BANK1   BANK2   BANK3   BANK4   BANK5   BANK6   BANK7   BANK8   BANK9  BANK10  BANK1
      +1  BANK12  BANK13  BANK14  BANK15
  5148 ;;      Params:         0       0       0       0       0       0       0       0       0       0       0       0       
      +0       0       0       0       0
  5149 ;;      Locals:         0       0       0       0       0       0       0       0       0       0       0       0       
      +0       0       0       0       0
  5150 ;;      Temps:          0       0       0       0       0       0       0       0       0       0       0       0       
      +0       0       0       0       0
  5151 ;;      Totals:         0       0       0       0       0       0       0       0       0       0       0       0       
      +0       0       0       0       0
  5152 ;;Total ram usage:        0 bytes
  5153 ;; Hardware stack levels used: 1
  5154 ;; This function calls:
  5155 ;;		Nothing
  5156 ;; This function is called by:
  5157 ;;		_interruptManager
  5158 ;; This function uses a non-reentrant model
  5159 ;;
  5160                           
  5161                           	psect	text31
  5162   002622                     __ptext31:
  5163                           	callstack 0
  5164   002622                     _TIMER1_ISR:
  5165                           	callstack 25
  5166   002622                     
  5167                           ;MCAL_LAYER/TIMER1/hal_timer1.c: 171:     (PIR1bits.TMR1IF=0);
  5168   002622  909E               	bcf	158,0,c	;volatile
  5169   002624                     
  5170                           ;MCAL_LAYER/TIMER1/hal_timer1.c: 172:     TMR1H=(preload_timer1) >>8;
  5171   002624  5063               	movf	(_preload_timer1+1)^0,w,c
  5172   002626  6ECF               	movwf	207,c	;volatile
  5173   002628                     
  5174                           ;MCAL_LAYER/TIMER1/hal_timer1.c: 173:     TMR1L=(uint8)(preload_timer1);
  5175   002628  C062  FFCE         	movff	_preload_timer1,4046	;volatile
  5176   00262C  0012               	return		;funcret
  5177   00262E                     __end_of_TIMER1_ISR:
  5178                           	callstack 0
  5179                           
  5180 ;; *************** function _TIMER0_ISR *****************
  5181 ;; Defined at:
  5182 ;;		line 173 in file "MCAL_LAYER/TIMER0/hal_timer0.c"
  5183 ;; Parameters:    Size  Location     Type
  5184 ;;		None
  5185 ;; Auto vars:     Size  Location     Type
  5186 ;;		None
  5187 ;; Return value:  Size  Location     Type
  5188 ;;                  1    wreg      void 
  5189 ;; Registers used:
  5190 ;;		wreg, status,2, status,0, pcl, pclath, pclatu, tosl, cstack
  5191 ;; Tracked objects:
  5192 ;;		On entry : 0/0
  5193 ;;		On exit  : 0/0
  5194 ;;		Unchanged: 0/0
  5195 ;; Data sizes:     COMRAM   BANK0   BANK1   BANK2   BANK3   BANK4   BANK5   BANK6   BANK7   BANK8   BANK9  BANK10  BANK1
      +1  BANK12  BANK13  BANK14  BANK15
  5196 ;;      Params:         0       0       0       0       0       0       0       0       0       0       0       0       
      +0       0       0       0       0
  5197 ;;      Locals:         0       0       0       0       0       0       0       0       0       0       0       0       
      +0       0       0       0       0
  5198 ;;      Temps:          0       0       0       0       0       0       0       0       0       0       0       0       
      +0       0       0       0       0
  5199 ;;      Totals:         0       0       0       0       0       0       0       0       0       0       0       0       
      +0       0       0       0       0
  5200 ;;Total ram usage:        0 bytes
  5201 ;; Hardware stack levels used: 1
  5202 ;; Hardware stack levels required when called: 1
  5203 ;; This function calls:
  5204 ;;		Absolute function
  5205 ;;		_Timer0Interrupt
  5206 ;; This function is called by:
  5207 ;;		_interruptManager
  5208 ;; This function uses a non-reentrant model
  5209 ;;
  5210                           
  5211                           	psect	text32
  5212   0025B8                     __ptext32:
  5213                           	callstack 0
  5214   0025B8                     _TIMER0_ISR:
  5215                           	callstack 24
  5216   0025B8                     
  5217                           ;MCAL_LAYER/TIMER0/hal_timer0.c: 175:     (INTCONbits.TMR0IF=0);
  5218   0025B8  94F2               	bcf	242,2,c	;volatile
  5219   0025BA                     
  5220                           ;MCAL_LAYER/TIMER0/hal_timer0.c: 176:     TMR0H=(preload_timer) >> 8;
  5221   0025BA  5067               	movf	(_preload_timer+1)^0,w,c
  5222   0025BC  6ED7               	movwf	215,c	;volatile
  5223   0025BE                     
  5224                           ;MCAL_LAYER/TIMER0/hal_timer0.c: 177:     TMR0L=(uint8)(preload_timer);
  5225   0025BE  C066  FFD6         	movff	_preload_timer,4054	;volatile
  5226   0025C2                     
  5227                           ;MCAL_LAYER/TIMER0/hal_timer0.c: 178:     if (TIMER0_interruptHandler){
  5228   0025C2  5068               	movf	_TIMER0_interruptHandler^0,w,c
  5229   0025C4  1069               	iorwf	(_TIMER0_interruptHandler+1)^0,w,c
  5230   0025C6  B4D8               	btfsc	status,2,c
  5231   0025C8  EFE8  F012         	goto	i2u67_41
  5232   0025CC  EFEA  F012         	goto	i2u67_40
  5233   0025D0                     i2u67_41:
  5234   0025D0  EFF6  F012         	goto	i2l593
  5235   0025D4                     i2u67_40:
  5236   0025D4                     
  5237                           ;MCAL_LAYER/TIMER0/hal_timer0.c: 179:         TIMER0_interruptHandler();
  5238   0025D4  D802               	call	i2u68_48
  5239   0025D6  EFF6  F012         	goto	i2u68_49
  5240   0025DA                     i2u68_48:
  5241   0025DA  0005               	push	
  5242   0025DC  6EFA               	movwf	pclath,c
  5243   0025DE  5068               	movf	_TIMER0_interruptHandler^0,w,c
  5244   0025E0  6EFD               	movwf	tosl,c
  5245   0025E2  5069               	movf	(_TIMER0_interruptHandler+1)^0,w,c
  5246   0025E4  6EFE               	movwf	tosh,c
  5247   0025E6  6AFF               	clrf	tosu,c
  5248   0025E8  50FA               	movf	pclath,w,c
  5249   0025EA  0012               	return		;indir
  5250   0025EC                     i2u68_49:
  5251   0025EC                     i2l593:
  5252   0025EC  0012               	return		;funcret
  5253   0025EE                     __end_of_TIMER0_ISR:
  5254                           	callstack 0
  5255                           
  5256 ;; *************** function _Timer0Interrupt *****************
  5257 ;; Defined at:
  5258 ;;		line 40 in file "MCAL_LAYER/Delay/M_Delay.c"
  5259 ;; Parameters:    Size  Location     Type
  5260 ;;		None
  5261 ;; Auto vars:     Size  Location     Type
  5262 ;;		None
  5263 ;; Return value:  Size  Location     Type
  5264 ;;                  1    wreg      void 
  5265 ;; Registers used:
  5266 ;;		status,2, status,0
  5267 ;; Tracked objects:
  5268 ;;		On entry : 0/0
  5269 ;;		On exit  : 0/0
  5270 ;;		Unchanged: 0/0
  5271 ;; Data sizes:     COMRAM   BANK0   BANK1   BANK2   BANK3   BANK4   BANK5   BANK6   BANK7   BANK8   BANK9  BANK10  BANK1
      +1  BANK12  BANK13  BANK14  BANK15
  5272 ;;      Params:         0       0       0       0       0       0       0       0       0       0       0       0       
      +0       0       0       0       0
  5273 ;;      Locals:         0       0       0       0       0       0       0       0       0       0       0       0       
      +0       0       0       0       0
  5274 ;;      Temps:          0       0       0       0       0       0       0       0       0       0       0       0       
      +0       0       0       0       0
  5275 ;;      Totals:         0       0       0       0       0       0       0       0       0       0       0       0       
      +0       0       0       0       0
  5276 ;;Total ram usage:        0 bytes
  5277 ;; Hardware stack levels used: 1
  5278 ;; This function calls:
  5279 ;;		Nothing
  5280 ;; This function is called by:
  5281 ;;		_TIMER0_ISR
  5282 ;; This function uses a non-reentrant model
  5283 ;;
  5284                           
  5285                           	psect	text33
  5286   00262E                     __ptext33:
  5287                           	callstack 0
  5288   00262E                     _Timer0Interrupt:
  5289                           	callstack 24
  5290   00262E                     
  5291                           ;MCAL_LAYER/Delay/M_Delay.c: 41:     u16DelayCounter++;
  5292   00262E  4A6A               	infsnz	_u16DelayCounter^0,f,c	;volatile
  5293   002630  2A6B               	incf	(_u16DelayCounter+1)^0,f,c	;volatile
  5294   002632  0012               	return		;funcret
  5295   002634                     __end_of_Timer0Interrupt:
  5296                           	callstack 0
  5297                           
  5298                           	psect	text34
  5299   000000                     __ptext34:
  5300                           	callstack 0
  5301   000000                     
  5302                           	psect	rparam
  5303   000000                     
  5304                           	psect	temp
  5305   000070                     btemp:
  5306                           	callstack 0
  5307   000070                     	ds	1
  5308   000000                     int$flags	set	btemp
  5309   000000                     wtemp8	set	btemp+1
  5310   000000                     ttemp5	set	btemp+1
  5311   000000                     ttemp6	set	btemp+4
  5312   000000                     ttemp7	set	btemp+8
  5313                           
  5314                           	psect	idloc
  5315                           
  5316                           ;Config register IDLOC0 @ 0x200000
  5317                           ;	unspecified, using default values
  5318   200000                     	org	2097152
  5319   200000  FF                 	db	255
  5320                           
  5321                           ;Config register IDLOC1 @ 0x200001
  5322                           ;	unspecified, using default values
  5323   200001                     	org	2097153
  5324   200001  FF                 	db	255
  5325                           
  5326                           ;Config register IDLOC2 @ 0x200002
  5327                           ;	unspecified, using default values
  5328   200002                     	org	2097154
  5329   200002  FF                 	db	255
  5330                           
  5331                           ;Config register IDLOC3 @ 0x200003
  5332                           ;	unspecified, using default values
  5333   200003                     	org	2097155
  5334   200003  FF                 	db	255
  5335                           
  5336                           ;Config register IDLOC4 @ 0x200004
  5337                           ;	unspecified, using default values
  5338   200004                     	org	2097156
  5339   200004  FF                 	db	255
  5340                           
  5341                           ;Config register IDLOC5 @ 0x200005
  5342                           ;	unspecified, using default values
  5343   200005                     	org	2097157
  5344   200005  FF                 	db	255
  5345                           
  5346                           ;Config register IDLOC6 @ 0x200006
  5347                           ;	unspecified, using default values
  5348   200006                     	org	2097158
  5349   200006  FF                 	db	255
  5350                           
  5351                           ;Config register IDLOC7 @ 0x200007
  5352                           ;	unspecified, using default values
  5353   200007                     	org	2097159
  5354   200007  FF                 	db	255
  5355                           
  5356                           	psect	config
  5357                           
  5358                           ; Padding undefined space
  5359   300000                     	org	3145728
  5360   300000  FF                 	db	255
  5361                           
  5362                           ;Config register CONFIG1H @ 0x300001
  5363                           ;	Oscillator Selection bits
  5364                           ;	OSC = INTIO67, Internal oscillator block, port function on RA6 and RA7
  5365                           ;	Fail-Safe Clock Monitor Enable bit
  5366                           ;	FCMEN = OFF, Fail-Safe Clock Monitor disabled
  5367                           ;	Internal/External Oscillator Switchover bit
  5368                           ;	IESO = OFF, Oscillator Switchover mode disabled
  5369   300001                     	org	3145729
  5370   300001  08                 	db	8
  5371                           
  5372                           ;Config register CONFIG2L @ 0x300002
  5373                           ;	Power-up Timer Enable bit
  5374                           ;	PWRT = OFF, PWRT disabled
  5375                           ;	Brown-out Reset Enable bits
  5376                           ;	BOREN = OFF, Brown-out Reset disabled in hardware and software
  5377                           ;	Brown Out Reset Voltage bits
  5378                           ;	BORV = 1, 
  5379   300002                     	org	3145730
  5380   300002  09                 	db	9
  5381                           
  5382                           ;Config register CONFIG2H @ 0x300003
  5383                           ;	Watchdog Timer Enable bit
  5384                           ;	WDT = OFF, WDT disabled (control is placed on the SWDTEN bit)
  5385                           ;	Watchdog Timer Postscale Select bits
  5386                           ;	WDTPS = 512, 1:512
  5387   300003                     	org	3145731
  5388   300003  12                 	db	18
  5389                           
  5390                           ; Padding undefined space
  5391   300004                     	org	3145732
  5392   300004  FF                 	db	255
  5393                           
  5394                           ;Config register CONFIG3H @ 0x300005
  5395                           ;	CCP2 MUX bit
  5396                           ;	CCP2MX = PORTC, CCP2 input/output is multiplexed with RC1
  5397                           ;	PORTB A/D Enable bit
  5398                           ;	PBADEN = OFF, PORTB<4:0> pins are configured as digital I/O on Reset
  5399                           ;	Low-Power Timer1 Oscillator Enable bit
  5400                           ;	LPT1OSC = OFF, Timer1 configured for higher power operation
  5401                           ;	MCLR Pin Enable bit
  5402                           ;	MCLRE = ON, MCLR pin enabled; RE3 input pin disabled
  5403   300005                     	org	3145733
  5404   300005  81                 	db	129
  5405                           
  5406                           ;Config register CONFIG4L @ 0x300006
  5407                           ;	Stack Full/Underflow Reset Enable bit
  5408                           ;	STVREN = ON, Stack full/underflow will cause Reset
  5409                           ;	Single-Supply ICSP Enable bit
  5410                           ;	LVP = OFF, Single-Supply ICSP disabled
  5411                           ;	Extended Instruction Set Enable bit
  5412                           ;	XINST = OFF, Instruction set extension and Indexed Addressing mode disabled (Legacy mo
      +                          de)
  5413                           ;	Background Debugger Enable bit
  5414                           ;	DEBUG = 0x1, unprogrammed default
  5415   300006                     	org	3145734
  5416   300006  81                 	db	129
  5417                           
  5418                           ; Padding undefined space
  5419   300007                     	org	3145735
  5420   300007  FF                 	db	255
  5421                           
  5422                           ;Config register CONFIG5L @ 0x300008
  5423                           ;	Code Protection bit
  5424                           ;	CP0 = OFF, Block 0 (000800-003FFFh) not code-protected
  5425                           ;	Code Protection bit
  5426                           ;	CP1 = OFF, Block 1 (004000-007FFFh) not code-protected
  5427                           ;	Code Protection bit
  5428                           ;	CP2 = OFF, Block 2 (008000-00BFFFh) not code-protected
  5429                           ;	Code Protection bit
  5430                           ;	CP3 = OFF, Block 3 (00C000-00FFFFh) not code-protected
  5431   300008                     	org	3145736
  5432   300008  0F                 	db	15
  5433                           
  5434                           ;Config register CONFIG5H @ 0x300009
  5435                           ;	Boot Block Code Protection bit
  5436                           ;	CPB = OFF, Boot block (000000-0007FFh) not code-protected
  5437                           ;	Data EEPROM Code Protection bit
  5438                           ;	CPD = OFF, Data EEPROM not code-protected
  5439   300009                     	org	3145737
  5440   300009  C0                 	db	192
  5441                           
  5442                           ;Config register CONFIG6L @ 0x30000A
  5443                           ;	Write Protection bit
  5444                           ;	WRT0 = OFF, Block 0 (000800-003FFFh) not write-protected
  5445                           ;	Write Protection bit
  5446                           ;	WRT1 = OFF, Block 1 (004000-007FFFh) not write-protected
  5447                           ;	Write Protection bit
  5448                           ;	WRT2 = OFF, Block 2 (008000-00BFFFh) not write-protected
  5449                           ;	Write Protection bit
  5450                           ;	WRT3 = OFF, Block 3 (00C000-00FFFFh) not write-protected
  5451   30000A                     	org	3145738
  5452   30000A  0F                 	db	15
  5453                           
  5454                           ;Config register CONFIG6H @ 0x30000B
  5455                           ;	Configuration Register Write Protection bit
  5456                           ;	WRTC = OFF, Configuration registers (300000-3000FFh) not write-protected
  5457                           ;	Boot Block Write Protection bit
  5458                           ;	WRTB = OFF, Boot Block (000000-0007FFh) not write-protected
  5459                           ;	Data EEPROM Write Protection bit
  5460                           ;	WRTD = OFF, Data EEPROM not write-protected
  5461   30000B                     	org	3145739
  5462   30000B  E0                 	db	224
  5463                           
  5464                           ;Config register CONFIG7L @ 0x30000C
  5465                           ;	Table Read Protection bit
  5466                           ;	EBTR0 = OFF, Block 0 (000800-003FFFh) not protected from table reads executed in other
      +                           blocks
  5467                           ;	Table Read Protection bit
  5468                           ;	EBTR1 = OFF, Block 1 (004000-007FFFh) not protected from table reads executed in other
      +                           blocks
  5469                           ;	Table Read Protection bit
  5470                           ;	EBTR2 = OFF, Block 2 (008000-00BFFFh) not protected from table reads executed in other
      +                           blocks
  5471                           ;	Table Read Protection bit
  5472                           ;	EBTR3 = OFF, Block 3 (00C000-00FFFFh) not protected from table reads executed in other
      +                           blocks
  5473   30000C                     	org	3145740
  5474   30000C  0F                 	db	15
  5475                           
  5476                           ;Config register CONFIG7H @ 0x30000D
  5477                           ;	Boot Block Table Read Protection bit
  5478                           ;	EBTRB = OFF, Boot Block (000000-0007FFh) not protected from table reads executed in ot
      +                          her blocks
  5479   30000D                     	org	3145741
  5480   30000D  40                 	db	64
  5481                           tosu	equ	0xFFF
  5482                           tosh	equ	0xFFE
  5483                           tosl	equ	0xFFD
  5484                           stkptr	equ	0xFFC
  5485                           pclatu	equ	0xFFB
  5486                           pclath	equ	0xFFA
  5487                           pcl	equ	0xFF9
  5488                           tblptru	equ	0xFF8
  5489                           tblptrh	equ	0xFF7
  5490                           tblptrl	equ	0xFF6
  5491                           tablat	equ	0xFF5
  5492                           prodh	equ	0xFF4
  5493                           prodl	equ	0xFF3
  5494                           indf0	equ	0xFEF
  5495                           postinc0	equ	0xFEE
  5496                           postdec0	equ	0xFED
  5497                           preinc0	equ	0xFEC
  5498                           plusw0	equ	0xFEB
  5499                           fsr0h	equ	0xFEA
  5500                           fsr0l	equ	0xFE9
  5501                           wreg	equ	0xFE8
  5502                           indf1	equ	0xFE7
  5503                           postinc1	equ	0xFE6
  5504                           postdec1	equ	0xFE5
  5505                           preinc1	equ	0xFE4
  5506                           plusw1	equ	0xFE3
  5507                           fsr1h	equ	0xFE2
  5508                           fsr1l	equ	0xFE1
  5509                           bsr	equ	0xFE0
  5510                           indf2	equ	0xFDF
  5511                           postinc2	equ	0xFDE
  5512                           postdec2	equ	0xFDD
  5513                           preinc2	equ	0xFDC
  5514                           plusw2	equ	0xFDB
  5515                           fsr2h	equ	0xFDA
  5516                           fsr2l	equ	0xFD9
  5517                           status	equ	0xFD8

Data Sizes:
    Strings     215
    Constant    16
    Data        64
    BSS         20
    Persistent  0
    Stack       0

Auto Spaces:
    Space          Size  Autos    Used
    COMRAM          126     27     111
    BANK0           128     15      15
    BANK1           256      0       0
    BANK2           256      0       0
    BANK3           256      0       0
    BANK4           256      0       0
    BANK5           256      0       0
    BANK6           256      0       0
    BANK7           256      0       0
    BANK8           256      0       0
    BANK9           256      0       0
    BANK10          256      0       0
    BANK11          256      0       0
    BANK12          256      0       0
    BANK13          256      0       0
    BANK14          256      0       0
    BANK15          128      0       0

Pointer List with Targets:

    vfprintf$2	PTR PTR void  size(2) Largest target is 2
		 -> sprintf@ap(COMRAM[2]), 

    vfprintf$1	PTR const unsigned char  size(2) Largest target is 3
		 -> STR_23(CODE[3]), STR_22(CODE[3]), STR_21(CODE[3]), 

    vfprintf$0	PTR struct _IO_FILE size(2) Largest target is 11
		 -> sprintf@f(COMRAM[11]), 

    S1848$source	PTR const unsigned char  size(2) Largest target is 0

    f...source	PTR const unsigned char  size(2) Largest target is 0

    S1848$buffer	PTR unsigned char  size(2) Largest target is 0

    f...buffer	PTR unsigned char  size(2) Largest target is 0

    timer1_select_reg_mode@_timer.TIMER1_HandlerInterrupt	PTR FTN()void  size(2) Largest target is 0

    timer1_oscillator_enable@_timer.TIMER1_HandlerInterrupt	PTR FTN()void  size(2) Largest target is 0

    timer1_select_mode_timer_or_counter@_timer.TIMER1_HandlerInterrupt	PTR FTN()void  size(2) Largest target is 0

    TIMER1_interruptHandler	PTR FTN()void  size(2) Largest target is 1
		 -> Absolute function(), 

    S1190$TIMER1_HandlerInterrupt	PTR FTN()void  size(2) Largest target is 0

    Timer1_Init@_timer.TIMER1_HandlerInterrupt	PTR FTN()void  size(2) Largest target is 0

    Timer0_mode_timer_or_counter_selcet@_timer.TIMER0_HandlerInterrupt	PTR FTN()void  size(2) Largest target is 1
		 -> Timer0Interrupt(), 

    Timer0_mode_timer_or_counter_selcet@_timer	PTR const struct . size(2) Largest target is 6
		 -> TimerDelay(COMRAM[6]), 

    Timer0_mode_of_register_size_selcet@_timer.TIMER0_HandlerInterrupt	PTR FTN()void  size(2) Largest target is 1
		 -> Timer0Interrupt(), 

    Timer0_mode_of_register_size_selcet@_timer	PTR const struct . size(2) Largest target is 6
		 -> TimerDelay(COMRAM[6]), 

    Timer0_prescaler_selcet@_timer.TIMER0_HandlerInterrupt	PTR FTN()void  size(2) Largest target is 1
		 -> Timer0Interrupt(), 

    Timer0_prescaler_selcet@_timer	PTR const struct . size(2) Largest target is 6
		 -> TimerDelay(COMRAM[6]), 

    Timer0_DeInit@_timer	PTR const struct . size(2) Largest target is 6
		 -> TimerDelay(COMRAM[6]), 

    TIMER0_interruptHandler	PTR FTN()void  size(2) Largest target is 1
		 -> Absolute function(), Timer0Interrupt(), 

    Timer0_Init@_timer.TIMER0_HandlerInterrupt	PTR FTN()void  size(2) Largest target is 1
		 -> Timer0Interrupt(), 

    Timer0_Init@_timer	PTR const struct . size(2) Largest target is 6
		 -> TimerDelay(COMRAM[6]), 

    gpio_Pin_Intialize@pin_config	PTR const struct . size(2) Largest target is 8
		 -> Lcd_Obj.lcd_data(COMRAM[4]), Lcd_Obj(COMRAM[6]), DC_Obj.dc_motor_pin(COMRAM[2]), DC_Obj(COMRAM[2]), 
		 -> Keypad_Obj.pin_keypad_rows(COMRAM[4]), Keypad_Obj(COMRAM[8]), 

    gpio_Pin_Read_Logic@logic	PTR enum E2965 size(2) Largest target is 1
		 -> keypad_get_value@column_logic_pin(COMRAM[1]), 

    gpio_Pin_Read_Logic@pin_config	PTR const struct . size(2) Largest target is 8
		 -> Keypad_Obj.pin_keypad_colums(COMRAM[4]), Keypad_Obj(COMRAM[8]), 

    gpio_Pin_Write_Logic@pin_config	PTR const struct . size(2) Largest target is 8
		 -> Lcd_Obj.lcd_data(COMRAM[4]), Lcd_Obj(COMRAM[6]), DC_Obj.dc_motor_pin(COMRAM[2]), DC_Obj(COMRAM[2]), 
		 -> Keypad_Obj.pin_keypad_rows(COMRAM[4]), Keypad_Obj(COMRAM[8]), 

    gpio_Pin_Derction_Intialize@pin_config	PTR const struct . size(2) Largest target is 8
		 -> Lcd_Obj.lcd_data(COMRAM[4]), Lcd_Obj(COMRAM[6]), DC_Obj.dc_motor_pin(COMRAM[2]), DC_Obj(COMRAM[2]), 
		 -> Keypad_Obj.pin_keypad_colums(COMRAM[4]), Keypad_Obj.pin_keypad_rows(COMRAM[4]), Keypad_Obj(COMRAM[8]), 

    port_registers	PTR volatile unsigned char [5] size(2) Largest target is 1
		 -> PORTE(BITBIGSFRlllll[1]), PORTD(BITBIGSFRlllll[1]), PORTC(BITBIGSFRlllll[1]), PORTB(BITBIGSFRlllll[1]), 
		 -> PORTA(BITBIGSFRlllll[1]), 

    lat_registers	PTR volatile unsigned char [5] size(2) Largest target is 1
		 -> LATE(BITBIGSFRllllh[1]), LATD(BITBIGSFRllllh[1]), LATC(BITBIGSFRllllh[1]), LATB(BITBIGSFRllllh[1]), 
		 -> LATA(BITBIGSFRlllll[1]), 

    tris_registers	PTR volatile unsigned char [5] size(2) Largest target is 1
		 -> TRISE(BITBIGSFRlllhl[1]), TRISD(BITBIGSFRlllhl[1]), TRISC(BITBIGSFRlllhl[1]), TRISB(BITBIGSFRlllhl[1]), 
		 -> TRISA(BITBIGSFRlllll[1]), 

    eeprom_ReadDataByte@data	PTR unsigned char  size(2) Largest target is 4
		 -> u8PassIsSetOrNotSet@u8LocDataAdd(COMRAM[1]), main@PassStored(BANK0[4]), 

    S646$TIMER0_HandlerInterrupt	PTR FTN()void  size(2) Largest target is 1
		 -> Timer0Interrupt(), 

    TimerDelay.TIMER0_HandlerInterrupt	PTR FTN()void  size(2) Largest target is 1
		 -> Timer0Interrupt(), 

    keypad_get_value@value	PTR unsigned char  size(2) Largest target is 1
		 -> main@u8KeyPadPressed(BANK0[1]), 

    keypad_get_value@_keypad_obj	PTR const struct . size(2) Largest target is 8
		 -> Keypad_Obj(COMRAM[8]), 

    keypad_initialize@_keypad_obj	PTR const struct . size(2) Largest target is 8
		 -> Keypad_Obj(COMRAM[8]), 

    dc_motor_stop@dc_motor	PTR struct . size(2) Largest target is 2
		 -> DC_Obj(COMRAM[2]), 

    dc_motor_move_left@dc_motor	PTR struct . size(2) Largest target is 2
		 -> DC_Obj(COMRAM[2]), 

    dc_motor_move_right@dc_motor	PTR struct . size(2) Largest target is 2
		 -> DC_Obj(COMRAM[2]), 

    dc_motor_initialize@dc_motor	PTR struct . size(2) Largest target is 2
		 -> DC_Obj(COMRAM[2]), 

    set_cursor_4bit_mode@_lcd	PTR const struct . size(2) Largest target is 6
		 -> Lcd_Obj(COMRAM[6]), 

    send_4bit_mode_enable@_lcd	PTR const struct . size(2) Largest target is 6
		 -> Lcd_Obj(COMRAM[6]), 

    send_data_4bit_mode@_lcd	PTR const struct . size(2) Largest target is 6
		 -> Lcd_Obj(COMRAM[6]), 

    sp__memset	PTR void  size(2) Largest target is 0

    lcd_4bit_send_string_data@str	PTR unsigned char  size(2) Largest target is 20
		 -> STR_20(CODE[14]), STR_19(CODE[11]), STR_18(CODE[11]), STR_17(CODE[14]), 
		 -> STR_16(CODE[15]), STR_15(CODE[20]), STR_14(CODE[13]), STR_13(CODE[14]), 
		 -> STR_12(CODE[12]), STR_11(CODE[14]), STR_10(CODE[16]), STR_9(CODE[14]), 
		 -> STR_8(CODE[14]), STR_7(CODE[11]), STR_6(CODE[11]), STR_5(CODE[10]), 
		 -> STR_4(CODE[11]), STR_3(CODE[14]), STR_2(CODE[12]), STR_1(CODE[17]), 

    lcd_4bit_send_string_data@_lcd	PTR const struct . size(2) Largest target is 6
		 -> Lcd_Obj(COMRAM[6]), 

    lcd_4bit_send_char_data@_lcd	PTR const struct . size(2) Largest target is 6
		 -> Lcd_Obj(COMRAM[6]), 

    lcd_4bit_send_command@_lcd	PTR const struct . size(2) Largest target is 6
		 -> Lcd_Obj(COMRAM[6]), 

    lcd_4bit_initialize@_lcd	PTR const struct . size(2) Largest target is 6
		 -> Lcd_Obj(COMRAM[6]), 

    u8ComparePass@Pass2	PTR const unsigned char  size(2) Largest target is 4
		 -> main@Pass_239(BANK0[4]), 

    u8ComparePass@Pass1	PTR const unsigned char  size(2) Largest target is 4
		 -> main@PassStored(BANK0[4]), 

    vReadBlockOnEEPROM@Pass	PTR unsigned char  size(2) Largest target is 4
		 -> main@PassStored(BANK0[4]), 

    vWriteBlockOnEEPROM@Pass	PTR unsigned char  size(2) Largest target is 4
		 -> main@Pass(BANK0[4]), 


Critical Paths under _main in COMRAM

    _main->_set_cursor_4bit_mode
    _vWriteBlockOnEEPROM->_eeprom_WriteDataByte
    _vReadBlockOnEEPROM->_eeprom_ReadDataByte
    _u8PassIsSetOrNotSet->_eeprom_ReadDataByte
    _set_cursor_4bit_mode->_lcd_4bit_send_command
    _lcd_4bit_send_string_data->_lcd_4bit_send_char_data
    _lcd_4bit_send_char_data->_send_data_4bit_mode
    _lcd_4bit_initialize->_lcd_4bit_send_command
    _lcd_4bit_send_command->_send_data_4bit_mode
    _send_data_4bit_mode->_gpio_Pin_Write_Logic
    _send_4bit_mode_enable->_gpio_Pin_Write_Logic
    _keypad_initialize->_gpio_Pin_Intialize
    _keypad_get_value->_gpio_Pin_Read_Logic
    _keypad_get_value->_gpio_Pin_Write_Logic
    _dc_motor_stop->_gpio_Pin_Write_Logic
    _dc_motor_move_right->_gpio_Pin_Write_Logic
    _dc_motor_move_left->_gpio_Pin_Write_Logic
    _dc_motor_initialize->_gpio_Pin_Intialize
    _gpio_Pin_Intialize->_gpio_Pin_Write_Logic
    __TimerDelay_ms->_Timer0_Init
    _Timer0_Init->_Timer0_prescaler_selcet

Critical Paths under _interruptManager in COMRAM

    None.

Critical Paths under _main in BANK0

    None.

Critical Paths under _interruptManager in BANK0

    None.

Critical Paths under _main in BANK1

    None.

Critical Paths under _interruptManager in BANK1

    None.

Critical Paths under _main in BANK2

    None.

Critical Paths under _interruptManager in BANK2

    None.

Critical Paths under _main in BANK3

    None.

Critical Paths under _interruptManager in BANK3

    None.

Critical Paths under _main in BANK4

    None.

Critical Paths under _interruptManager in BANK4

    None.

Critical Paths under _main in BANK5

    None.

Critical Paths under _interruptManager in BANK5

    None.

Critical Paths under _main in BANK6

    None.

Critical Paths under _interruptManager in BANK6

    None.

Critical Paths under _main in BANK7

    None.

Critical Paths under _interruptManager in BANK7

    None.

Critical Paths under _main in BANK8

    None.

Critical Paths under _interruptManager in BANK8

    None.

Critical Paths under _main in BANK9

    None.

Critical Paths under _interruptManager in BANK9

    None.

Critical Paths under _main in BANK10

    None.

Critical Paths under _interruptManager in BANK10

    None.

Critical Paths under _main in BANK11

    None.

Critical Paths under _interruptManager in BANK11

    None.

Critical Paths under _main in BANK12

    None.

Critical Paths under _interruptManager in BANK12

    None.

Critical Paths under _main in BANK13

    None.

Critical Paths under _interruptManager in BANK13

    None.

Critical Paths under _main in BANK14

    None.

Critical Paths under _interruptManager in BANK14

    None.

Critical Paths under _main in BANK15

    None.

Critical Paths under _interruptManager in BANK15

    None.

Call Graph Tables:

 ---------------------------------------------------------------------------------
 (Depth) Function   	        Calls       Base Space   Used Autos Params    Refs
 ---------------------------------------------------------------------------------
 (0) _main                                                15    15      0  146783
                                              0 BANK0     15    15      0
                     __TimerDelay_ms
                _dc_motor_initialize
                 _dc_motor_move_left
                _dc_motor_move_right
                      _dc_motor_stop
               _eeprom_WriteDataByte
                   _keypad_get_value
                  _keypad_initialize
                _lcd_4bit_initialize
            _lcd_4bit_send_char_data
              _lcd_4bit_send_command
          _lcd_4bit_send_string_data
               _set_cursor_4bit_mode
                      _u8ComparePass
                _u8PassIsSetOrNotSet
                 _vReadBlockOnEEPROM
                _vWriteBlockOnEEPROM
 ---------------------------------------------------------------------------------
 (1) _vWriteBlockOnEEPROM                                 10     5      5    1322
                                              6 COMRAM    10     5      5
               _eeprom_WriteDataByte
 ---------------------------------------------------------------------------------
 (2) _eeprom_WriteDataByte                                 5     2      3     857
                                              2 COMRAM     4     1      3
 ---------------------------------------------------------------------------------
 (1) _vReadBlockOnEEPROM                                  10     5      5     965
                                              6 COMRAM    10     5      5
                _eeprom_ReadDataByte
 ---------------------------------------------------------------------------------
 (1) _u8PassIsSetOrNotSet                                  3     1      2     779
                                              6 COMRAM     3     1      2
                _eeprom_ReadDataByte
 ---------------------------------------------------------------------------------
 (2) _eeprom_ReadDataByte                                  5     1      4     500
                                              2 COMRAM     4     0      4
 ---------------------------------------------------------------------------------
 (1) _u8ComparePass                                        9     4      5     769
                                              2 COMRAM     9     4      5
 ---------------------------------------------------------------------------------
 (1) _set_cursor_4bit_mode                                 7     3      4   23218
                                             20 COMRAM     7     3      4
              _lcd_4bit_send_command
 ---------------------------------------------------------------------------------
 (1) _lcd_4bit_send_string_data                            5     1      4   20389
                                             20 COMRAM     4     0      4
            _lcd_4bit_send_char_data
 ---------------------------------------------------------------------------------
 (2) _lcd_4bit_send_char_data                              4     1      3   16646
                                             16 COMRAM     4     1      3
               _gpio_Pin_Write_Logic
              _send_4bit_mode_enable
                _send_data_4bit_mode
 ---------------------------------------------------------------------------------
 (1) _lcd_4bit_initialize                                  6     4      2   26369
                                             20 COMRAM     6     4      2
                 _gpio_Pin_Intialize
              _lcd_4bit_send_command
 ---------------------------------------------------------------------------------
 (2) _lcd_4bit_send_command                                4     1      3   19886
                                             16 COMRAM     4     1      3
               _gpio_Pin_Write_Logic
              _send_4bit_mode_enable
                _send_data_4bit_mode
 ---------------------------------------------------------------------------------
 (3) _send_data_4bit_mode                                  4     1      3    5442
                                             12 COMRAM     4     1      3
               _gpio_Pin_Write_Logic
 ---------------------------------------------------------------------------------
 (3) _send_4bit_mode_enable                                3     1      2    4890
                                             12 COMRAM     3     1      2
               _gpio_Pin_Write_Logic
 ---------------------------------------------------------------------------------
 (1) _keypad_initialize                                    7     5      2    6682
                                             16 COMRAM     6     4      2
        _gpio_Pin_Derction_Intialize
                 _gpio_Pin_Intialize
 ---------------------------------------------------------------------------------
 (1) _keypad_get_value                                    11     7      4    5804
                                             12 COMRAM    10     6      4
                _gpio_Pin_Read_Logic
               _gpio_Pin_Write_Logic
 ---------------------------------------------------------------------------------
 (2) _gpio_Pin_Read_Logic                                 10     6      4     403
                                              2 COMRAM    10     6      4
 ---------------------------------------------------------------------------------
 (1) _dc_motor_stop                                        3     1      2    4596
                                             12 COMRAM     3     1      2
               _gpio_Pin_Write_Logic
 ---------------------------------------------------------------------------------
 (1) _dc_motor_move_right                                  3     1      2    4596
                                             12 COMRAM     3     1      2
               _gpio_Pin_Write_Logic
 ---------------------------------------------------------------------------------
 (1) _dc_motor_move_left                                   3     1      2    4596
                                             12 COMRAM     3     1      2
               _gpio_Pin_Write_Logic
 ---------------------------------------------------------------------------------
 (1) _dc_motor_initialize                                  3     1      2    6041
                                             16 COMRAM     3     1      2
                 _gpio_Pin_Intialize
 ---------------------------------------------------------------------------------
 (2) _gpio_Pin_Intialize                                   4     2      2    5839
                                             12 COMRAM     4     2      2
        _gpio_Pin_Derction_Intialize
               _gpio_Pin_Write_Logic
 ---------------------------------------------------------------------------------
 (4) _gpio_Pin_Write_Logic                                10     7      3    4394
                                              2 COMRAM    10     7      3
 ---------------------------------------------------------------------------------
 (3) _gpio_Pin_Derction_Intialize                          9     7      2     437
                                              2 COMRAM     9     7      2
 ---------------------------------------------------------------------------------
 (1) __TimerDelay_ms                                       2     0      2    2452
                                              9 COMRAM     2     0      2
                      _Timer0_DeInit
                        _Timer0_Init
 ---------------------------------------------------------------------------------
 (2) _Timer0_Init                                          5     3      2     993
                                              5 COMRAM     4     2      2
_Timer0_mode_of_register_size_selcet
_Timer0_mode_timer_or_counter_selcet
            _Timer0_prescaler_selcet
 ---------------------------------------------------------------------------------
 (3) _Timer0_prescaler_selcet                              3     1      2     183
                                              2 COMRAM     3     1      2
 ---------------------------------------------------------------------------------
 (3) _Timer0_mode_timer_or_counter_selcet                  2     0      2     214
                                              2 COMRAM     2     0      2
 ---------------------------------------------------------------------------------
 (3) _Timer0_mode_of_register_size_selcet                  2     0      2     152
                                              2 COMRAM     2     0      2
 ---------------------------------------------------------------------------------
 (2) _Timer0_DeInit                                        3     1      2     227
                                              2 COMRAM     2     0      2
 ---------------------------------------------------------------------------------
 Estimated maximum stack depth 4
 ---------------------------------------------------------------------------------
 (Depth) Function   	        Calls       Base Space   Used Autos Params    Refs
 ---------------------------------------------------------------------------------
 (5) _interruptManager                                     2     2      0       0
                                              0 COMRAM     2     2      0
                         _TIMER0_ISR
                         _TIMER1_ISR
 ---------------------------------------------------------------------------------
 (6) _TIMER1_ISR                                           0     0      0       0
 ---------------------------------------------------------------------------------
 (6) _TIMER0_ISR                                           0     0      0       0
                   Absolute function *
                    _Timer0Interrupt *
 ---------------------------------------------------------------------------------
 (7) _Timer0Interrupt                                      0     0      0       0
 ---------------------------------------------------------------------------------
 (7) Absolute function(Fake)                               0     0      0       0
 ---------------------------------------------------------------------------------
 Estimated maximum stack depth 7
 ---------------------------------------------------------------------------------

 Call Graph Graphs:

 _main (ROOT)
   __TimerDelay_ms
     _Timer0_DeInit
     _Timer0_Init
       _Timer0_mode_of_register_size_selcet
       _Timer0_mode_timer_or_counter_selcet
       _Timer0_prescaler_selcet
   _dc_motor_initialize
     _gpio_Pin_Intialize
       _gpio_Pin_Derction_Intialize
       _gpio_Pin_Write_Logic
   _dc_motor_move_left
     _gpio_Pin_Write_Logic
   _dc_motor_move_right
     _gpio_Pin_Write_Logic
   _dc_motor_stop
     _gpio_Pin_Write_Logic
   _eeprom_WriteDataByte
   _keypad_get_value
     _gpio_Pin_Read_Logic
     _gpio_Pin_Write_Logic
   _keypad_initialize
     _gpio_Pin_Derction_Intialize
     _gpio_Pin_Intialize
   _lcd_4bit_initialize
     _gpio_Pin_Intialize
     _lcd_4bit_send_command
       _gpio_Pin_Write_Logic
       _send_4bit_mode_enable
         _gpio_Pin_Write_Logic
       _send_data_4bit_mode
         _gpio_Pin_Write_Logic
   _lcd_4bit_send_char_data
     _gpio_Pin_Write_Logic
     _send_4bit_mode_enable
     _send_data_4bit_mode
   _lcd_4bit_send_command
   _lcd_4bit_send_string_data
     _lcd_4bit_send_char_data
   _set_cursor_4bit_mode
     _lcd_4bit_send_command
   _u8ComparePass
   _u8PassIsSetOrNotSet
     _eeprom_ReadDataByte
   _vReadBlockOnEEPROM
     _eeprom_ReadDataByte
   _vWriteBlockOnEEPROM
     _eeprom_WriteDataByte

 _interruptManager (ROOT)
   _TIMER0_ISR
     Absolute function(Fake) *
     _Timer0Interrupt *
   _TIMER1_ISR

 Address spaces:
Name               Size   Autos  Total    Cost      Usage
BIGRAM             F7F      0       0      46        0.0%
EEDATA             400      0       0       0        0.0%
BITBANK14          100      0       0      33        0.0%
BANK14             100      0       0      34        0.0%
BITBANK13          100      0       0      31        0.0%
BANK13             100      0       0      32        0.0%
BITBANK12          100      0       0      29        0.0%
BANK12             100      0       0      30        0.0%
BITBANK11          100      0       0      27        0.0%
BANK11             100      0       0      28        0.0%
BITBANK10          100      0       0      25        0.0%
BANK10             100      0       0      26        0.0%
BITBANK9           100      0       0      23        0.0%
BANK9              100      0       0      24        0.0%
BITBANK8           100      0       0      21        0.0%
BANK8              100      0       0      22        0.0%
BITBANK7           100      0       0      18        0.0%
BANK7              100      0       0      19        0.0%
BITBANK6           100      0       0      16        0.0%
BANK6              100      0       0      17        0.0%
BITBANK5           100      0       0      14        0.0%
BANK5              100      0       0      15        0.0%
BITBANK4           100      0       0      12        0.0%
BANK4              100      0       0      13        0.0%
BITBANK3           100      0       0      10        0.0%
BANK3              100      0       0      11        0.0%
BITBANK2           100      0       0       8        0.0%
BANK2              100      0       0       9        0.0%
BITBANK1           100      0       0       6        0.0%
BANK1              100      0       0       7        0.0%
BITBANK15           80      0       0      35        0.0%
BANK15              80      0       0      36        0.0%
BITBANK0            80      0       0       4        0.0%
BANK0               80      F       F       5       11.7%
BITCOMRAM           7E      0       0       0        0.0%
COMRAM              7E     1B      6F       1       88.1%
BITBIGSFRhlhh       1A      0       0      38        0.0%
BITBIGSFRlh         16      0       0      41        0.0%
BITBIGSFRhh          D      0       0      37        0.0%
BITBIGSFRhlll        B      0       0      40        0.0%
BITBIGSFRlllhh       7      0       0      42        0.0%
BITBIGSFRlllhl       6      0       0      43        0.0%
BITBIGSFRhllhh       5      0       0      39        0.0%
BITBIGSFRllllh       4      0       0      44        0.0%
BITBIGSFRlllll       4      0       0      45        0.0%
BIGSFR               0      0       0     200        0.0%
BITSFR               0      0       0     200        0.0%
SFR                  0      0       0     200        0.0%
STACK                0      0       0       2        0.0%
NULL                 0      0       0       0        0.0%
ABS                  0      0      7E      20        0.0%
DATA                 0      0      7E       3        0.0%
CODE                 0      0       0       0        0.0%


Microchip Technology PIC18 Macro Assembler V2.40 build 20220703182018 
Symbol Table                                                                                   Wed Jun 14 18:24:16 2023

                          _btn_keypad_values 1001                                           l72 1444  
                                         l64 1376                                           l90 2620  
                                         l59 1244                                           l96 2138  
                     vReadBlockOnEEPROM@Pass 0049                       vReadBlockOnEEPROM@Size 004B  
                                        l102 2192                                          l300 2492  
                                        l140 1AFE                                          l109 2240  
                                        l310 2452                                          l150 2006  
                                        l305 24D2                                          l145 2078  
                                        l163 2296                                          l252 1E9E  
                                        l343 1C06                                          l360 233E  
                                        l329 1F94                                          l257 238E  
                                        l274 1CC4                                          l443 18B2  
                                        l460 19DE                                          l390 23D2  
                                        l551 2604                                          l295 2580  
                                        l553 2608                                          l546 1D94  
                                        l467 1D7C                                          l395 2548  
                                        l387 23B8                                          l572 21EA  
                                        l548 1E16                                          l389 23C6  
                                        l479 20DA                                          l579 2510  
                                        l588 1F1C                                          l589 1F1C  
                               main@Pass_239 0084                  __end_of_u8PassIsSetOrNotSet 2622  
                                        prod 000FF3                                          tosl 000FFD  
                                        wreg 000FE8                         _set_cursor_4bit_mode 1C08  
               lcd_4bit_send_string_data@str 0057                                         l4001 1C70  
                                       l4003 1C88                                         l4021 2332  
                                       l4013 22EE                                         l4005 1CC2  
                                       l4101 222C                                         l4015 22FA  
                                       l4111 2466                                         l4031 1B10  
                                       l4103 223E                                         l4023 260A  
                                       l4017 2312                                         l4121 24A6  
                                       l4113 246A                                         l4033 1B22  
                                       l4025 261E                                         l4201 113A  
                                       l4019 232A                                         l4123 24AA  
                                       l4107 2454                                         l4131 2426  
                                       l4051 1B54                                         l4043 1B3C  
                                       l4035 1B34                                         l4211 1196  
                                       l4203 114E                                         l4117 2494  
                                       l4109 2454                                         l4133 242A  
                                       l4053 1B56                                         l4037 1B38  
                                       l4029 1B00                                         l4301 1480  
                                       l4221 1202                                         l4213 11AA  
                                       l4205 115A                                         l4119 2494  
                                       l4127 2414                                         l4071 1BE4  
                                       l4063 1B7E                                         l4055 1B66  
                                       l4311 14D0                                         l4303 1490  
                                       l4231 125E                                         l4223 1216  
                                       l4215 11D2                                         l4207 116A  
                                       l3601 18EC                                         l4129 2414  
                                       l4073 1BF4                                         l4065 1BA2  
                                       l4057 1B7A                                         l4049 1B40  
                                       l4081 2110                                         l4321 150E  
                                       l4313 14E4                                         l4305 14A0  
                                       l4241 12B4                                         l4233 1270  
                                       l4225 122A                                         l4217 11DE  
                                       l4209 1186                                         l3611 19DC  
                                       l3603 18F4                                         l4075 1BF6  
                                       l4067 1BB2                                         l4091 216E  
                                       l4083 2114                                         l4323 151A  
                                       l4307 14B4                                         l4331 1552  
                                       l4251 12FC                                         l4243 12C4  
                                       l4235 1280                                         l4227 1230  
                                       l4219 11EE                                         l3701 1EFC  
                                       l3605 1956                                         l4069 1BE2  
                                       l3621 1E18                                         l4093 21EC  
                                       l4085 213A                                         l4077 20DC  
                                       l4341 15B8                                         l4333 1564  
                                       l4325 1532                                         l4309 14C0  
                                       l4317 14EE                                         l4261 134E  
                                       l4253 130C                                         l4245 12D0  
                                       l4237 1290                                         l4229 124A  
                                       l3703 1F16                                         l3631 2340  
                                       l3623 1E2A                                         l3711 2022  
                                       l4095 21F8                                         l4087 214E  
                                       l4079 20F0                                         l4351 1614  
                                       l4343 15CC                                         l4335 157C  
                                       l4327 1542                                         l4319 14FE  
                                       l4271 138C                                         l4263 135E  
                                       l4255 131C                                         l4239 129C  
                                       l4247 12D4                                         l4191 10FA  
                                       l3609 19B2                                         l3641 2376  
                                       l3633 2340                                         l3625 1E32  
                                       l3713 2076                                         l3705 2008  
                                       l3721 1FA8                                         l4097 2222  
                                       l4089 216A                                         l4361 1658  
                                       l4353 1628                                         l4345 15D8  
                                       l4337 15A4                                         l4329 154E  
                                       l4281 13F8                                         l4273 139C  
                                       l4265 1376                                         l4257 1330  
                                       l4249 12E4                                         l4193 1106  
                                       l3651 1786                                         l3643 238C  
                                       l3635 2352                                         l3627 1E9C  
                                       l3619 1E18                                         l3707 2008  
                                       l3723 1FB0                                         l4099 222A  
                                       l3731 2390                                         l4371 16B6  
                                       l4363 1664                                         l4355 1634  
                                       l4347 15EC                                         l4339 15A8  
                                       l4291 1430                                         l4283 1404  
                                       l4275 13AC                                         l4267 1376  
                                       l4259 1340                                         l4195 1112  
                                       l4187 10EA                                         l3661 186E  
                                       l3653 17A8                                         l3637 235A  
                                       l3709 201A                                         l3725 2004  
                                       l3717 1F96                                         l3741 23A8  
                                       l3733 2398                                         l4381 1714  
                                       l4373 16C6                                         l4365 1674  
                                       l4357 1640                                         l4349 1600  
                                       l4293 1430                                         l4285 1414  
                                       l4277 13BC                                         l4269 137C  
                                       l4197 1112                                         l4189 10EE  
                                       l3671 2194                                         l3655 17B0  
                                       l3663 18B0                                         l3647 1770  
                                       l3903 1F40                                         l3639 236E  
                                       l3719 1F96                                         l4623 1C9C  
                                       l3751 23B6                                         l3743 23AA  
                                       l3735 239E                                         l4391 1764  
                                       l4383 1720                                         l4375 16DA  
                                       l4359 164C                                         l4367 168C  
                                       l4295 144A                                         l4287 1428  
                                       l4279 13D0                                         l4199 1126  
                                       l3681 24D4                                         l3673 21AE  
                                       l3657 1812                                         l3649 1774  
                                       l4625 19C6                                         l3841 1CEE  
                                       l3905 1F50                                         l3921 19E0  
                                       l3761 252E                                         l3753 2512  
                                       l3745 23AC                                         l3737 23A2  
                                       l3729 2390                                         l4385 1730  
                                       l4377 16EE                                         l4369 16B4  
                                       l4297 145E                                         l4289 142C  
                                       l3683 24EE                                         l3691 1EBA  
                                       l3675 21B0                                         l3851 1D7E  
                                       l4627 189A                                         l3595 18B4  
                                       l3843 1D10                                         l3835 1CC6  
                                       l3915 1F66                                         l3907 1F52  
                                       l3923 19E4                                         l3771 253A  
                                       l3763 2532                                         l3755 2512  
                                       l3747 23AE                                         l3739 23A6  
                                       l4387 1744                                         l4379 1702  
                                       l4299 1470                                         l3685 24F4  
                                       l3693 1EC0                                         l3677 21CE  
                                       l3861 1DD8                                         l3853 1D7E  
                                       l3597 18B8                                         l3781 207A  
                                       l3845 1D18                                         l3837 1CCA  
                                       l3917 1F82                                         l3909 1F62  
                                       l3941 1A4C                                         l3925 19F6  
                                       l3773 253C                                         l3765 2534  
                                       l3757 2524                                         l3749 23B2  
                                       l4389 1754                                         l3687 250E  
                                       l3695 1EDA                                         l3679 21E8  
                                       l3871 1E02                                         l3863 1DE8  
                                       l3855 1D90                                         l3599 18CA  
                                       l3783 208C                                         l3847 1D7A  
                                       l3839 1CDC                                         l3919 1F84  
                                       l3951 1A9E                                         l3943 1A5A  
                                       l3935 1A1E                                         l3927 19FA  
                                       l3775 2548                                         l3767 2536  
                                       l3759 2528                                         l3881 25EE  
                                       l3697 1EDC                                         l3689 1EA0  
                                       l3873 1E04                                         l3865 1DFC  
                                       l3857 1D96                                         l3785 20AE  
                                       l3961 1AEE                                         l3953 1AAE  
                                       l3945 1A6A                                         l3937 1A3A  
                                       l3929 1A1A                                         l3769 2538  
                                       l3883 25EE                                         l3699 1EF6  
                                       l3875 1E14                                         l3867 1DFE  
                                       l3859 1DBA                                         l3787 20AE  
                                       l3779 207A                                         l3971 2560  
                                       l3891 1F1E                                         l3955 1ABE  
                                       l3947 1A88                                         l3939 1A3C  
                                       l3885 2600                                         l3877 1E16  
                                       l3869 1E00                                         l3789 20BA  
                                       l3965 254A                                         l3893 1F26  
                                       l3957 1ACE                                         l3949 1A8E  
                                       l3981 2258                                         l3887 2608  
                                       l3967 254A                                         l3895 1F38  
                                       l3959 1ADE                                         l3983 2274  
                                       l3975 2242                                         l3991 1C0E  
                                       l3969 255C                                         l3897 1F3C  
                                       l3985 2278                                         l3977 2242  
                                       l3993 1C20                                         l3979 2254  
                                       l3995 1C28                                         l3987 1C08  
                                       l3997 1C40                                         l3989 1C0C  
                                       l3999 1C58                                         STR_1 1025  
                                       STR_2 108C                                         STR_3 1071  
                                       STR_4 10BA                                         STR_5 10DB  
                                       STR_6 10A4                                         STR_7 10AF  
                                       STR_8 1055                                         STR_9 1063  
                                       u3000 15A4                                         u3001 15A0  
                                       u3010 16B4                                         u3011 16B0  
                                       u2300 1E2A                                         u3020 1754  
                                       u2301 1E26                                         u3021 1750  
                                       _LATA 000F89                                         u2310 2352  
                                       _LATB 000F8A                                         u2311 234E  
                                       _LATC 000F8B                                         u2400 24EE  
                                       u2320 1786                                         _LATD 000F8C  
                                       u2401 24EA                                         u2321 1782  
                                       _LATE 000F8D                                         u2410 250E  
                                       u2330 17A8                                         u2411 250A  
                                       u2331 17A4                                         u2420 1EBA  
                                       u2260 18CA                                         u2500 2524  
                                       u2421 1EB6                                         u2261 18C6  
                                       u2501 2520                                         u2430 1EDA  
                                       u2270 18EC                                         u2510 208C  
                                       u2431 1ED6                                         u2271 18E8  
                                       u2511 2088                                         u3207 1A8A  
                                       u2440 1EF6                                         u2360 1886  
                                       u2344 17D0                                         u2520 20AE  
                                       u2441 1EF2                                         u2361 1880  
                                       u2345 17CC                                         u2521 20AA  
                                       u3217 2370                                         u2450 1F16  
                                       u2610 1D90                                         u2370 1888  
                                       u2354 1832                                         u2451 1F12  
                                       u2611 1D8C                                         u2355 182E  
                                       u2620 2600                                         u2380 21AE  
                                       u2284 1914                                         u2604 1D66  
                                       u2460 201A                                         u2700 2296  
                                       u2621 25FC                                         u2381 21AA  
                                       u2285 1910                                         u2605 1D62  
                                       u2461 2016                                         u2701 2292  
                                       u2390 21E8                                         u2294 1976  
                                       u2630 1F38                                         u2470 1FA8  
                                       u2710 1C20                                         u2391 21E4  
                                       u2295 1972                                         u2631 1F34  
                                       u2471 1FA4                                         u2711 1C1C  
                                       u2720 2312                                         u2640 1F62  
                                       u2480 23C6                                         u2800 2138  
                                       u2721 230E                                         u2641 1F5E  
                                       u2481 23C2                                         u2801 2134  
                                       u2730 232A                                         u2570 1CDC  
                                       u2650 1F94                                         u2810 2192  
                                       u2731 2326                                         u2571 1CD8  
                                       u2651 1F90                                         u3187 1A52  
                                       u2811 218E                                         u2580 1CEE  
                                       u2740 1B22                                         u2660 19F6  
                                       u2820 2222                                         u2581 1CEA  
                                       u2741 1B1E                                         u3197 1A70  
                                       u2661 19F2                                         u2821 221E  
                                       u2590 1D10                                         u2750 1B34  
                                       u2670 1A4C                                         u2830 223E  
                                       u2591 1D0C                                         u2751 1B30  
                                       u2671 1A48                                         u2831 223A  
                                       u2495 23D0                                         u2680 255C  
                                       u2840 2466                                         u2760 1B66  
                                       u2496 23D2                                         u2920 1186  
                                       u2681 2558                                         u2841 2462  
                                       u2761 1B62                                         u2921 1182  
                                       u2850 24A6                                         u2770 1BB2  
                                       u2690 2254                                         u2930 1270  
                                       u2851 24A2                                         u2771 1BAE  
                                       u2691 2250                                         u2931 126C  
                                       u2860 2426                                         u2780 1BF4  
                                       u2940 12E4                                         u2861 2422  
                                       u2781 1BF0                                         u2941 12E0  
                                       u2790 1C06                                         u2950 13AC  
                                       u2791 1C02                                         u2951 13A8  
                                       u2960 1470                                         u2961 146C  
                                       u2970 1480                                         u2971 147C  
                                       u2980 1490                                         u2981 148C  
                                       u2990 1564                                         u2991 1560  
                     ??_gpio_Pin_Write_Logic 0046                                         _main 10EA  
               gpio_Pin_Intialize@pin_config 004D                                         fsr2h 000FDA  
                                       indf2 000FDF                                         fsr1l 000FE1  
                                       fsr2l 000FD9                                         btemp 0070  
                   __end_of_interruptManager 22EE                                         prodl 000FF3  
                                       start 000E                    __end_of_btn_keypad_values 1011  
                               ___param_bank 000000                        _lcd_4bit_send_command 2008  
                     dc_motor_initialize@ret 0053                   __end_of_vReadBlockOnEEPROM 2194  
                                ?_TIMER0_ISR 0041                                  ?_TIMER1_ISR 0041  
       eeprom_WriteDataByte@interrupt_status 0046                        _send_4bit_mode_enable 2340  
                                      ?_main 0041                                        _EEADR 000FA9  
                  _lcd_4bit_send_string_data 2242                                        STR_10 1036  
                                      STR_11 1055                                        STR_20 1055  
                                      STR_12 1098                                        STR_13 1055  
                                      STR_21 10E5                                        STR_14 107F  
                                      STR_15 1011                                        STR_16 1046  
                                      STR_17 1055                                        STR_18 10C5  
                                      STR_19 10D0                                        i2l370 2632  
                                      i2l525 22E2                                        i2l593 25EC  
                                      i2l666 262C                                        _TMR0H 000FD7  
                                      _TMR1H 000FCF                                        _TMR0L 000FD6  
                                      _TMR1L 000FCE                                        _PORTA 000F80  
                                      _PORTB 000F81                                        _PORTC 000F82  
                                      _PORTD 000F83                                        _PORTE 000F84  
                                      _TRISA 000F92                                        _TRISB 000F93  
                                      _TRISC 000F94                                        _TRISD 000F95  
                                      _TRISE 000F96                            Timer0_Init@_timer 0046  
              Timer0_prescaler_selcet@_timer 0043                        ?_set_cursor_4bit_mode 0055  
                          ??_Timer0Interrupt 0041                     __end_of_keypad_get_value 1C08  
             keypad_initialize@keypad_colums 0056               gpio_Pin_Write_Logic@pin_config 0043  
                      __end_of_Timer0_DeInit 260A              __end_of_Timer0_prescaler_selcet 21EC  
                 __end_of_gpio_Pin_Intialize 20DC                                        pclath 000FFA  
                                      pclatu 000FFB                                        tablat 000FF5  
                                      ttemp5 0071                                        ttemp6 0074  
                                      ttemp7 0078                                        status 000FD8  
                                      wtemp8 0071                      set_cursor_4bit_mode@ret 005B  
                    set_cursor_4bit_mode@row 0057                 keypad_initialize@keypad_rows 0055  
                             main@PassStored 0088                              __initialization 2582  
                               __end_of_main 1770                                   _Keypad_Obj 002B  
      gpio_Pin_Derction_Intialize@pin_config 0043                                _lat_registers 000B  
                __end_of_dc_motor_initialize 2582                                       ??_main 005C  
                  lcd_4bit_send_command@_lcd 0051                                __activetblptr 000003  
                __end_of_send_data_4bit_mode 1EA0                                       _EEADRH 000FAA  
                                     _EEDATA 000FA8                                       _EECON2 000FA7  
                   u8ComparePass@PassCounter 004B                                       _DC_Obj 003F  
                                     i2l1655 262E                                       i2l2471 22C2  
                                     i2l2473 22D0                                       i2l2465 22A2  
                                     i2l2475 22DE                                       i2l2467 22B0  
                                     i2l2469 22BE                                       i2l1961 25C2  
                                     i2l1963 25D4                                       i2l1955 25B8  
                                     i2l1957 25BA                                       i2l1965 2622  
                                     i2l1959 25BE                                       i2l1967 2624  
                                     i2l1969 2628                    keypad_get_value@l_counter 0054  
                              ??_Timer0_Init 0048                gpio_Pin_Read_Logic@pin_config 0043  
                      __end_of_u8ComparePass 2242                  __end_of_dc_motor_move_right 2494  
                     ?_lcd_4bit_send_command 0051          __end_of_gpio_Pin_Derction_Intialize 18B4  
                _gpio_Pin_Derction_Intialize 1770                                   _TimerDelay 0033  
                __end_of_gpio_Pin_Read_Logic 1D7E                       ?_send_4bit_mode_enable 004D  
  Timer0_mode_timer_or_counter_selcet@_timer 0043                                       clear_0 25A8  
                                     isa$std 000001                              _u16DelayCounter 006A  
                               __pdataCOMRAM 0001                       ??_set_cursor_4bit_mode 0059  
                               __mediumconst 0000                                       tblptrh 000FF7  
                                     tblptrl 000FF6                                       tblptru 000FF8  
                   set_cursor_4bit_mode@_lcd 0055                              main@PassCounter 008C  
                                 __accesstop 0080                      __end_of__initialization 25AE  
                              ___rparam_used 000001                      _lcd_4bit_send_char_data 1F96  
                             __pcstackCOMRAM 0041                       send_data_4bit_mode@ret 0050  
                        __end_of_Timer0_Init 1E18                     lcd_4bit_send_command@ret 0054  
                    gpio_Pin_Write_Logic@ret 004C                          Timer0_DeInit@_timer 0043  
                        _eeprom_ReadDataByte 2512                            ?_interruptManager 0041  
                         ??_interruptManager 0041                          _vWriteBlockOnEEPROM 20DC  
                       ?_eeprom_ReadDataByte 0043                                 ??_TIMER0_ISR 0041  
                               ??_TIMER1_ISR 0041               vReadBlockOnEEPROM@LOC_Iterator 004F  
                            _Timer0Interrupt 262E               gpio_Pin_Derction_Intialize@ret 004B  
                         _vReadBlockOnEEPROM 213A                                      i2u67_40 25D4  
                                    i2u67_41 25D0                                      i2u68_48 25DA  
                                    i2u68_49 25EC                            ?_keypad_get_value 004D  
                       ?_vWriteBlockOnEEPROM 0047                           ??_keypad_get_value 0051  
          __end_of_lcd_4bit_send_string_data 2298                               __TimerDelay_ms 22EE  
                        ?_vReadBlockOnEEPROM 0047                               _tris_registers 0015  
                         __end_of_TIMER0_ISR 25EE                           __end_of_TIMER1_ISR 262E  
                                    _Lcd_Obj 0039                    ??_lcd_4bit_send_char_data 0054  
                      u8ComparePass@PassFlag 004A                                      __Hparam 0000  
                                _Timer0_Init 1D7E                                      __Lparam 0000  
                      dc_motor_move_left@ret 004F                        ??_eeprom_ReadDataByte 0047  
                         _gpio_Pin_Intialize 207A    Timer0_mode_of_register_size_selcet@_timer 0043  
                               __psmallconst 1000                         ??_vReadBlockOnEEPROM 004C  
                                    __pcinit 2582                                      __ramtop 1000  
                                    __ptext0 10EA                                      __ptext1 20DC  
                                    __ptext2 2390                                      __ptext3 213A  
                                    __ptext4 260A                                      __ptext5 2512  
                                    __ptext6 21EC                                      __ptext7 1C08  
                                    __ptext8 2242                                      __ptext9 1F96  
                        ?_gpio_Pin_Intialize 004D                                    _T0CONbits 000FD5  
                                  _T1CONbits 000FCD                           u8ComparePass@Pass1 0043  
                         u8ComparePass@Pass2 0045                               _SessionCounter 006C  
           keypad_get_value@column_logic_pin 0053                        ??_vWriteBlockOnEEPROM 004C  
                     __end_of__TimerDelay_ms 2340                               __pintcode_body 2298  
                       end_of_initialization 25AE                                      int_func 2298  
                       ??_gpio_Pin_Intialize 004F                      eeprom_ReadDataByte@badd 0043  
                    eeprom_ReadDataByte@data 0045                      ??_lcd_4bit_send_command 0054  
                    __end_of_Timer0Interrupt 2634                     send_4bit_mode_enable@ret 004F  
                              _dc_motor_stop 2414                      ??_send_4bit_mode_enable 004F  
                                    postdec1 000FE5                                      postdec2 000FDD  
                                    postinc0 000FEE                                      postinc1 000FE6  
                                    postinc2 000FDE                      vWriteBlockOnEEPROM@Pass 0049  
                    vWriteBlockOnEEPROM@Size 004B                      _Timer0_prescaler_selcet 2194  
                        _lcd_4bit_initialize 19E0                  dc_motor_move_right@dc_motor 004D  
            __end_of_lcd_4bit_send_char_data 2008                   lcd_4bit_send_char_data@ret 0054  
                            ?__TimerDelay_ms 004A                         ?_lcd_4bit_initialize 0055  
                  send_4bit_mode_enable@_lcd 004D                      _TIMER0_interruptHandler 0068  
                             ?_dc_motor_stop 004D                        keypad_get_value@value 004F  
                              _BlockModeFlag 006F                                __pidataCOMRAM 23D4  
                    send_data_4bit_mode@_lcd 004D                      send_data_4bit_mode@data 004F  
               keypad_get_value@counter_rows 0055                          start_initialization 2582  
               __end_of_eeprom_WriteDataByte 23D4                        ??_lcd_4bit_initialize 0057  
                              _Timer0_DeInit 25EE                             ?_Timer0Interrupt 0041  
                 __end_of_dc_motor_move_left 24D4                               _PassTriesCount 006E  
                  ??_Timer0_prescaler_selcet 0045                          _u8PassIsSetOrNotSet 260A  
               lcd_4bit_send_command@command 0053                             dc_motor_stop@ret 004F  
                      gpio_Pin_Intialize@ret 0050                                  __pbssCOMRAM 005C  
                              __pcstackBANK0 0080                               ?_Timer0_DeInit 0043  
                             _preload_timer1 0062                   dc_motor_move_left@dc_motor 004D  
                       ?_u8PassIsSetOrNotSet 0047                              ??_dc_motor_stop 004F  
                               ?_Timer0_Init 0046                                _u8ComparePass 21EC  
              lcd_4bit_send_string_data@_lcd 0055                                    __pintcode 0008  
                    _TIMER1_interruptHandler 0064                 __end_of_gpio_Pin_Write_Logic 19E0  
          lcd_convert_uint16_to_string@F3197 005C                                  __smallconst 1000  
__end_of_Timer0_mode_of_register_size_selcet 2512        ??_Timer0_mode_of_register_size_selcet 0045  
       ?_Timer0_mode_of_register_size_selcet 0043          _Timer0_mode_of_register_size_selcet 24D4  
                        main@u8KeyPadPressed 008E                        ??_u8PassIsSetOrNotSet 0049  
                          u8ComparePass@Size 0047                   ?_lcd_4bit_send_string_data 0055  
                __TimerDelay_ms@u16CopyDelay 004A                  __end_of_eeprom_ReadDataByte 254A  
                                   _PIE1bits 000F9D                                     i2u114_40 22B0  
                                   i2u114_41 22AC                                     i2u115_40 22BE  
                                   i2u115_41 22BA                                     i2u116_40 22D0  
                                   i2u116_41 22CC                __end_of_lcd_4bit_send_command 207A  
                                   i2u117_40 22DE                                     i2u117_41 22DA  
                             ?_u8ComparePass 0043                                     _PIR1bits 000F9E  
                        _dc_motor_initialize 254A                                    main@F3192 0027  
                       _eeprom_WriteDataByte 2390                                    main@F3195 0023  
                                  main@F3197 001F                __end_of_send_4bit_mode_enable 2390  
                   eeprom_WriteDataByte@badd 0043                 ?_gpio_Pin_Derction_Intialize 0043  
                   eeprom_WriteDataByte@data 0045                   set_cursor_4bit_mode@column 0058  
                        _send_data_4bit_mode 1E18                                   _ADCON1bits 000FC1  
                __end_of_vWriteBlockOnEEPROM 213A                             ??__TimerDelay_ms 004C  
                            ??_Timer0_DeInit 0045                         ?_dc_motor_initialize 0051  
                   ?_lcd_4bit_send_char_data 0051                                    copy_data0 2596  
                          _keypad_initialize 1F1E                         ?_send_data_4bit_mode 004D  
                        _dc_motor_move_right 2454                           ?_keypad_initialize 0051  
                  gpio_Pin_Write_Logic@logic 0045                                   _EECON1bits 000FA6  
                        _gpio_Pin_Read_Logic 1CC6               keypad_get_value@counter_colums 0056  
                                   __Hrparam 0000         vReadBlockOnEEPROM@u16TheStartAddress 0047  
      vWriteBlockOnEEPROM@u16TheStartAddress 0047                                     __Lrparam 0000  
                      ?_eeprom_WriteDataByte 0043                          ??_keypad_initialize 0053  
                      dc_motor_stop@dc_motor 004D                ??_gpio_Pin_Derction_Intialize 0045  
                       ?_dc_motor_move_right 004D                                _preload_timer 0066  
                           _interruptManager 0008                  keypad_get_value@_keypad_obj 004D  
                       ?_gpio_Pin_Read_Logic 0043                        ??_dc_motor_initialize 0053  
                  __end_of_keypad_initialize 1F96                                     __ptext10 19E0  
                                   __ptext11 2008                                     __ptext20 254A  
                                   __ptext12 1E18                                     __ptext21 207A  
                                   __ptext13 2340                                     __ptext22 18B4  
                                   __ptext14 1F1E                                     __ptext31 2622  
                                   __ptext23 1770                                     __ptext15 1B00  
                                   __ptext32 25B8                                     __ptext24 22EE  
                                   __ptext16 1CC6                                     __ptext33 262E  
                                   __ptext25 1D7E                                     __ptext17 2414  
                                   __ptext34 0000                                     __ptext26 2194  
                                   __ptext18 2454                                     __ptext27 1EA0  
                                   __ptext19 2494                                     __ptext28 24D4  
                                   __ptext29 25EE                       dc_motor_move_right@ret 004F  
                      ??_send_data_4bit_mode 0050                              ??_u8ComparePass 0048  
                       _gpio_Pin_Write_Logic 18B4                 __end_of_set_cursor_4bit_mode 1CC6  
                           _keypad_get_value 1B00  __end_of_Timer0_mode_timer_or_counter_selcet 1F1E  
      ??_Timer0_mode_timer_or_counter_selcet 0045         ?_Timer0_mode_timer_or_counter_selcet 0043  
        _Timer0_mode_timer_or_counter_selcet 1EA0                                     isa$xinst 000000  
               lcd_4bit_initialize@l_counter 0059                                     int$flags 0070  
                                   main@Pass 0080                  dc_motor_initialize@dc_motor 0051  
                      ??_dc_motor_move_right 004F                        ??_gpio_Pin_Read_Logic 0047  
                         _dc_motor_move_left 2494                                   _INTCONbits 000FF2  
                        main@PassCounter_237 008D                  __end_of_lcd_4bit_initialize 1B00  
            vWriteBlockOnEEPROM@LOC_Iterator 004F                          ?_dc_motor_move_left 004D  
                                   intlevel2 0000                        ?_gpio_Pin_Write_Logic 0043  
               keypad_initialize@_keypad_obj 0051                       ??_eeprom_WriteDataByte 0046  
                   gpio_Pin_Read_Logic@logic 0045                   u8PassIsSetOrNotSet@Address 0047  
                       ??_dc_motor_move_left 004F                                   _TIMER0_ISR 25B8  
                                 _TIMER1_ISR 2622                           fp__Timer0Interrupt 0000  
            u8PassIsSetOrNotSet@u8LocDataAdd 0049                               _port_registers 0001  
                     gpio_Pin_Read_Logic@ret 004C                  lcd_4bit_send_char_data@_lcd 0051  
                lcd_4bit_send_char_data@data 0053                  ??_lcd_4bit_send_string_data 0059  
                   ?_Timer0_prescaler_selcet 0043                      lcd_4bit_initialize@_lcd 0055  
                      __end_of_dc_motor_stop 2454                       lcd_4bit_initialize@ret 005A  
